TN:
TN:
TN:
TN:
SF:/social-network-microservices/src/UniqueIdService/UniqueIdHandler.h
FN:28,_ZN14social_networkL10GetCounterEl
FN:44,_ZN14social_network15UniqueIdHandlerD0Ev
FN:44,_ZN14social_network15UniqueIdHandlerD2Ev
FN:55,_ZN14social_network15UniqueIdHandlerC2EPSt5mutexRKNSt7__cxx1112basic_stringIcSt11char_traitsIcESaIcEEE
FN:61,_ZN14social_network15UniqueIdHandler15ComposeUniqueIdElNS_8PostType4typeERKSt3mapINSt7__cxx1112basic_stringIcSt11char_traitsIcESaIcEEES9_St4lessIS9_ESaISt4pairIKS9_S9_EEE
FN:123,_ZN14social_network17HashMacAddressPidERKNSt7__cxx1112basic_stringIcSt11char_traitsIcESaIcEEE
FN:132,_ZN14social_network12GetMachineIdERNSt7__cxx1112basic_stringIcSt11char_traitsIcESaIcEEE
FNDA:200,_ZN14social_networkL10GetCounterEl
FNDA:0,_ZN14social_network15UniqueIdHandlerD0Ev
FNDA:0,_ZN14social_network15UniqueIdHandlerD2Ev
FNDA:1,_ZN14social_network15UniqueIdHandlerC2EPSt5mutexRKNSt7__cxx1112basic_stringIcSt11char_traitsIcESaIcEEE
FNDA:200,_ZN14social_network15UniqueIdHandler15ComposeUniqueIdElNS_8PostType4typeERKSt3mapINSt7__cxx1112basic_stringIcSt11char_traitsIcESaIcEEES9_St4lessIS9_ESaISt4pairIKS9_S9_EEE
FNDA:1,_ZN14social_network17HashMacAddressPidERKNSt7__cxx1112basic_stringIcSt11char_traitsIcESaIcEEE
FNDA:1,_ZN14social_network12GetMachineIdERNSt7__cxx1112basic_stringIcSt11char_traitsIcESaIcEEE
FNF:7
FNH:5
DA:28,200
DA:29,200
DA:30,0
DA:31,0
DA:33,200
DA:34,0
DA:36,200
DA:37,200
DA:38,200
DA:44,0
DA:55,1
DA:56,1
DA:57,1
DA:58,1
DA:59,1
DA:61,200
DA:65,400
DA:68,400
DA:69,400
DA:70,400
DA:71,400
DA:72,400
DA:73,800
DA:74,200
DA:76,200
DA:78,400
DA:79,200
DA:80,200
DA:81,200
DA:82,200
DA:85,400
DA:87,400
DA:88,200
DA:89,400
DA:91,200
DA:92,0
DA:93,200
DA:94,0
DA:98,200
DA:99,200
DA:101,200
DA:102,400
DA:104,200
DA:105,0
DA:106,200
DA:107,200
DA:109,400
DA:110,200
DA:111,200
DA:113,200
DA:114,400
DA:123,1
DA:124,1
DA:125,2
DA:126,19
DA:127,18
DA:129,2
DA:132,1
DA:133,2
DA:135,2
DA:136,2
DA:137,1
DA:138,1
DA:139,0
DA:140,0
DA:142,2
DA:143,1
DA:144,1
DA:145,0
DA:146,0
DA:148,1
DA:150,2
DA:152,2
DA:153,1
DA:154,1
DA:156,1
DA:157,1
DA:158,0
DA:159,0
DA:161,1
LF:80
LH:67
end_of_record
SF:/social-network-microservices/src/UniqueIdService/UniqueIdService.cpp
FN:32,_Z13sigintHandleri
FN:34,_Z14handle_sigusr1i
FN:38,main
FN:69,_GLOBAL__sub_I__ZN14social_network11init_loggerEv
FN:69,_Z41__static_initialization_and_destruction_0ii
FNDA:0,_Z13sigintHandleri
FNDA:1,_Z14handle_sigusr1i
FNDA:1,main
FNDA:1,_GLOBAL__sub_I__ZN14social_network11init_loggerEv
FNDA:1,_Z41__static_initialization_and_destruction_0ii
FNF:5
FNH:4
DA:32,0
DA:34,1
DA:35,1
DA:36,0
DA:38,1
DA:39,1
DA:40,1
DA:41,1
DA:42,1
DA:44,1
DA:45,1
DA:46,0
DA:49,1
DA:50,1
DA:52,1
DA:53,1
DA:54,0
DA:56,2
DA:58,1
DA:59,1
DA:61,2
DA:62,2
DA:64,2
DA:65,6
DA:67,2
DA:68,1
DA:69,3
LF:27
LH:23
end_of_record
SF:/social-network-microservices/src/logger.h
FN:17,_ZN14social_network11init_loggerEv
FNDA:1,_ZN14social_network11init_loggerEv
FNF:1
FNH:1
DA:17,1
DA:19,1
DA:20,1
DA:22,1
DA:23,1
DA:24,2
DA:25,2
DA:26,1
DA:27,1
LF:9
LH:9
end_of_record
SF:/social-network-microservices/src/tracing.h
FN:20,_ZN14social_network13TextMapReaderD0Ev
FN:20,_ZN14social_network13TextMapReaderD2Ev
FN:22,_ZN14social_network13TextMapReaderC2ERKSt3mapINSt7__cxx1112basic_stringIcSt11char_traitsIcESaIcEEES7_St4lessIS7_ESaISt4pairIKS7_S7_EEE
FN:25,_ZNK14social_network13TextMapReader10ForeachKeyESt8functionIFN11opentracing2v28expectedIvSt10error_codeEENS3_11string_viewES7_EE
FN:39,_ZN14social_network13TextMapWriterD2Ev
FN:39,_ZN14social_network13TextMapWriterD0Ev
FN:41,_ZN14social_network13TextMapWriterC2ERSt3mapINSt7__cxx1112basic_stringIcSt11char_traitsIcESaIcEEES7_St4lessIS7_ESaISt4pairIKS7_S7_EEE
FN:44,_ZNK14social_network13TextMapWriter3SetEN11opentracing2v211string_viewES3_
FN:53,_ZN14social_network11SetUpTracerERKNSt7__cxx1112basic_stringIcSt11char_traitsIcESaIcEEES7_
FNDA:0,_ZN14social_network13TextMapReaderD0Ev
FNDA:200,_ZN14social_network13TextMapReaderD2Ev
FNDA:200,_ZN14social_network13TextMapReaderC2ERKSt3mapINSt7__cxx1112basic_stringIcSt11char_traitsIcESaIcEEES7_St4lessIS7_ESaISt4pairIKS7_S7_EEE
FNDA:200,_ZNK14social_network13TextMapReader10ForeachKeyESt8functionIFN11opentracing2v28expectedIvSt10error_codeEENS3_11string_viewES7_EE
FNDA:0,_ZN14social_network13TextMapWriterD0Ev
FNDA:200,_ZN14social_network13TextMapWriterD2Ev
FNDA:200,_ZN14social_network13TextMapWriterC2ERSt3mapINSt7__cxx1112basic_stringIcSt11char_traitsIcESaIcEEES7_St4lessIS7_ESaISt4pairIKS7_S7_EEE
FNDA:200,_ZNK14social_network13TextMapWriter3SetEN11opentracing2v211string_viewES3_
FNDA:1,_ZN14social_network11SetUpTracerERKNSt7__cxx1112basic_stringIcSt11char_traitsIcESaIcEEES7_
FNF:9
FNH:7
DA:20,200
DA:22,200
DA:23,200
DA:25,200
DA:28,400
DA:29,400
DA:30,200
DA:32,200
DA:39,200
DA:41,200
DA:42,200
DA:44,200
DA:45,200
DA:46,200
DA:53,1
DA:56,2
DA:63,2
DA:65,1
DA:66,3
DA:70,2
DA:71,1
DA:73,1
DA:75,0
DA:77,0
DA:78,0
DA:83,1
LF:26
LH:23
end_of_record
SF:/social-network-microservices/src/utils.h
FN:14,_ZN14social_network16load_config_fileERKNSt7__cxx1112basic_stringIcSt11char_traitsIcESaIcEEEPN8nlohmann10basic_jsonISt3mapSt6vectorS5_blmdSaNS8_14adl_serializerEEE
FNDA:1,_ZN14social_network16load_config_fileERKNSt7__cxx1112basic_stringIcSt11char_traitsIcESaIcEEEPN8nlohmann10basic_jsonISt3mapSt6vectorS5_blmdSaNS8_14adl_serializerEEE
FNF:1
FNH:1
DA:14,1
DA:15,2
DA:16,1
DA:17,1
DA:18,1
DA:19,1
DA:20,1
DA:23,0
DA:24,0
LF:9
LH:7
end_of_record
SF:/social-network-microservices/src/utils_thrift.h
FN:16,_ZN14social_network17get_server_socketERKN8nlohmann10basic_jsonISt3mapSt6vectorNSt7__cxx1112basic_stringIcSt11char_traitsIcESaIcEEEblmdSaNS0_14adl_serializerEEERKS9_i
FNDA:1,_ZN14social_network17get_server_socketERKN8nlohmann10basic_jsonISt3mapSt6vectorNSt7__cxx1112basic_stringIcSt11char_traitsIcESaIcEEEblmdSaNS0_14adl_serializerEEERKS9_i
FNF:1
FNH:1
DA:16,1
DA:17,1
DA:18,1
DA:19,0
DA:20,0
DA:21,0
DA:22,0
DA:24,0
DA:25,0
DA:26,0
DA:27,0
DA:28,0
DA:33,0
DA:35,1
LF:14
LH:4
end_of_record
