TN:
TN:
TN:
SF:/social-network-microservices/src/UrlShortenService/UrlShortenHandler.h
FN:25,_ZN14social_network17UrlShortenHandlerD2Ev
FN:25,_ZN14social_network17UrlShortenHandlerD0Ev
FN:47,_ZN14social_network17UrlShortenHandlerC2EP17memcached_pool_stP21_mongoc_client_pool_tPSt5mutex
FN:57,_ZN14social_network17UrlShortenHandler13_GenRandomStrB5cxx11Ei
FN:68,_ZN14social_network17UrlShortenHandler11ComposeUrlsERSt6vectorINS_3UrlESaIS2_EElRKS1_INSt7__cxx1112basic_stringIcSt11char_traitsIcESaIcEEESaISB_EERKSt3mapISB_SB_St4lessISB_ESaISt4pairIKSB_SB_EEE
FN:102,_ZZN14social_network17UrlShortenHandler11ComposeUrlsERSt6vectorINS_3UrlESaIS2_EElRKS1_INSt7__cxx1112basic_stringIcSt11char_traitsIcESaIcEEESaISB_EERKSt3mapISB_SB_St4lessISB_ESaISt4pairIKSB_SB_EEEENKUlvE_clEv
FN:180,_ZN14social_network17UrlShortenHandler15GetExtendedUrlsERSt6vectorINSt7__cxx1112basic_stringIcSt11char_traitsIcESaIcEEESaIS7_EElRKS9_RKSt3mapIS7_S7_St4lessIS7_ESaISt4pairIKS7_S7_EEE
FNDA:0,_ZN14social_network17UrlShortenHandlerD0Ev
FNDA:0,_ZN14social_network17UrlShortenHandlerD2Ev
FNDA:1,_ZN14social_network17UrlShortenHandlerC2EP17memcached_pool_stP21_mongoc_client_pool_tPSt5mutex
FNDA:0,_ZN14social_network17UrlShortenHandler13_GenRandomStrB5cxx11Ei
FNDA:200,_ZN14social_network17UrlShortenHandler11ComposeUrlsERSt6vectorINS_3UrlESaIS2_EElRKS1_INSt7__cxx1112basic_stringIcSt11char_traitsIcESaIcEEESaISB_EERKSt3mapISB_SB_St4lessISB_ESaISt4pairIKSB_SB_EEE
FNDA:0,_ZZN14social_network17UrlShortenHandler11ComposeUrlsERSt6vectorINS_3UrlESaIS2_EElRKS1_INSt7__cxx1112basic_stringIcSt11char_traitsIcESaIcEEESaISB_EERKSt3mapISB_SB_St4lessISB_ESaISt4pairIKSB_SB_EEEENKUlvE_clEv
FNDA:0,_ZN14social_network17UrlShortenHandler15GetExtendedUrlsERSt6vectorINSt7__cxx1112basic_stringIcSt11char_traitsIcESaIcEEESaIS7_EElRKS9_RKSt3mapIS7_S7_St4lessIS7_ESaISt4pairIKS7_S7_EEE
FNF:7
FNH:2
DA:25,0
DA:44,2
DA:45,3
DA:47,1
DA:50,1
DA:51,1
DA:52,1
DA:53,1
DA:54,1
DA:55,1
DA:57,0
DA:59,0
DA:60,0
DA:61,0
DA:62,0
DA:63,0
DA:65,0
DA:66,0
DA:68,200
DA:75,400
DA:78,400
DA:79,400
DA:80,400
DA:81,400
DA:82,400
DA:84,800
DA:85,200
DA:87,400
DA:88,400
DA:90,200
DA:91,0
DA:92,0
DA:93,0
DA:94,0
DA:95,0
DA:96,0
DA:99,0
DA:101,0
DA:102,0
DA:103,0
DA:104,0
DA:105,0
DA:106,0
DA:107,0
DA:108,0
DA:109,0
DA:112,0
DA:113,0
DA:114,0
DA:115,0
DA:116,0
DA:117,0
DA:118,0
DA:121,0
DA:123,0
DA:131,0
DA:132,0
DA:133,0
DA:134,0
DA:135,0
DA:136,0
DA:137,0
DA:139,0
DA:140,0
DA:141,0
DA:142,0
DA:143,0
DA:144,0
DA:145,0
DA:146,0
DA:147,0
DA:148,0
DA:149,0
DA:151,0
DA:152,0
DA:153,0
DA:154,0
DA:155,0
DA:157,0
DA:158,0
DA:162,200
DA:164,0
DA:165,0
DA:166,0
DA:167,0
DA:171,200
DA:174,400
DA:176,200
DA:178,200
DA:180,0
DA:187,0
LF:91
LH:26
end_of_record
SF:/social-network-microservices/src/UrlShortenService/UrlShortenService.cpp
FN:25,_Z13sigintHandleri
FN:35,_Z14handle_sigusr1i
FN:39,main
FN:91,_Z41__static_initialization_and_destruction_0ii
FN:91,_GLOBAL__sub_I__ZN14social_network11init_loggerEv
FNDA:0,_Z13sigintHandleri
FNDA:1,_Z14handle_sigusr1i
FNDA:1,main
FNDA:1,_GLOBAL__sub_I__ZN14social_network11init_loggerEv
FNDA:1,_Z41__static_initialization_and_destruction_0ii
FNF:5
FNH:4
DA:25,0
DA:26,0
DA:27,0
DA:29,0
DA:30,0
DA:32,0
DA:35,1
DA:36,1
DA:37,0
DA:39,1
DA:40,1
DA:41,1
DA:42,1
DA:43,1
DA:44,1
DA:45,1
DA:46,0
DA:48,1
DA:50,1
DA:51,1
DA:53,1
DA:54,1
DA:56,2
DA:57,1
DA:59,1
DA:60,1
DA:61,0
DA:64,1
DA:65,1
DA:66,0
DA:67,0
DA:69,1
DA:70,3
DA:71,1
DA:72,1
DA:73,0
DA:74,0
DA:77,1
DA:79,1
DA:80,1
DA:82,2
DA:83,2
DA:86,2
DA:87,6
DA:89,2
DA:90,1
DA:91,3
LF:47
LH:34
end_of_record
SF:/social-network-microservices/src/logger.h
FN:17,_ZN14social_network11init_loggerEv
FNDA:1,_ZN14social_network11init_loggerEv
FNF:1
FNH:1
DA:17,1
DA:19,1
DA:20,1
DA:22,1
DA:23,1
DA:24,2
DA:25,2
DA:26,1
DA:27,1
LF:9
LH:9
end_of_record
SF:/social-network-microservices/src/tracing.h
FN:20,_ZN14social_network13TextMapReaderD2Ev
FN:20,_ZN14social_network13TextMapReaderD0Ev
FN:22,_ZN14social_network13TextMapReaderC2ERKSt3mapINSt7__cxx1112basic_stringIcSt11char_traitsIcESaIcEEES7_St4lessIS7_ESaISt4pairIKS7_S7_EEE
FN:25,_ZNK14social_network13TextMapReader10ForeachKeyESt8functionIFN11opentracing2v28expectedIvSt10error_codeEENS3_11string_viewES7_EE
FN:39,_ZN14social_network13TextMapWriterD0Ev
FN:39,_ZN14social_network13TextMapWriterD2Ev
FN:41,_ZN14social_network13TextMapWriterC2ERSt3mapINSt7__cxx1112basic_stringIcSt11char_traitsIcESaIcEEES7_St4lessIS7_ESaISt4pairIKS7_S7_EEE
FN:44,_ZNK14social_network13TextMapWriter3SetEN11opentracing2v211string_viewES3_
FN:53,_ZN14social_network11SetUpTracerERKNSt7__cxx1112basic_stringIcSt11char_traitsIcESaIcEEES7_
FNDA:0,_ZN14social_network13TextMapReaderD0Ev
FNDA:200,_ZN14social_network13TextMapReaderD2Ev
FNDA:200,_ZN14social_network13TextMapReaderC2ERKSt3mapINSt7__cxx1112basic_stringIcSt11char_traitsIcESaIcEEES7_St4lessIS7_ESaISt4pairIKS7_S7_EEE
FNDA:200,_ZNK14social_network13TextMapReader10ForeachKeyESt8functionIFN11opentracing2v28expectedIvSt10error_codeEENS3_11string_viewES7_EE
FNDA:0,_ZN14social_network13TextMapWriterD0Ev
FNDA:200,_ZN14social_network13TextMapWriterD2Ev
FNDA:200,_ZN14social_network13TextMapWriterC2ERSt3mapINSt7__cxx1112basic_stringIcSt11char_traitsIcESaIcEEES7_St4lessIS7_ESaISt4pairIKS7_S7_EEE
FNDA:200,_ZNK14social_network13TextMapWriter3SetEN11opentracing2v211string_viewES3_
FNDA:1,_ZN14social_network11SetUpTracerERKNSt7__cxx1112basic_stringIcSt11char_traitsIcESaIcEEES7_
FNF:9
FNH:7
DA:20,200
DA:22,200
DA:23,200
DA:25,200
DA:28,400
DA:29,400
DA:30,200
DA:32,200
DA:39,200
DA:41,200
DA:42,200
DA:44,200
DA:45,200
DA:46,200
DA:53,1
DA:56,2
DA:63,2
DA:65,1
DA:66,3
DA:70,2
DA:71,1
DA:73,1
DA:75,0
DA:77,0
DA:78,0
DA:83,1
LF:26
LH:23
end_of_record
SF:/social-network-microservices/src/utils.h
FN:14,_ZN14social_network16load_config_fileERKNSt7__cxx1112basic_stringIcSt11char_traitsIcESaIcEEEPN8nlohmann10basic_jsonISt3mapSt6vectorS5_blmdSaNS8_14adl_serializerEEE
FNDA:1,_ZN14social_network16load_config_fileERKNSt7__cxx1112basic_stringIcSt11char_traitsIcESaIcEEEPN8nlohmann10basic_jsonISt3mapSt6vectorS5_blmdSaNS8_14adl_serializerEEE
FNF:1
FNH:1
DA:14,1
DA:15,2
DA:16,1
DA:17,1
DA:18,1
DA:19,1
DA:20,1
DA:23,0
DA:24,0
LF:9
LH:7
end_of_record
SF:/social-network-microservices/src/utils_memcached.h
FN:9,_ZN14social_network26init_memcached_client_poolERKN8nlohmann10basic_jsonISt3mapSt6vectorNSt7__cxx1112basic_stringIcSt11char_traitsIcESaIcEEEblmdSaNS0_14adl_serializerEEERKS9_jj
FNDA:1,_ZN14social_network26init_memcached_client_poolERKN8nlohmann10basic_jsonISt3mapSt6vectorNSt7__cxx1112basic_stringIcSt11char_traitsIcESaIcEEEblmdSaNS0_14adl_serializerEEERKS9_jj
FNF:1
FNH:1
DA:9,1
DA:15,2
DA:16,1
DA:17,1
DA:18,2
DA:19,1
DA:20,1
DA:21,1
DA:22,1
DA:23,1
DA:27,1
DA:28,2
LF:12
LH:12
end_of_record
SF:/social-network-microservices/src/utils_mongodb.h
FN:11,_ZN14social_network24init_mongodb_client_poolERKN8nlohmann10basic_jsonISt3mapSt6vectorNSt7__cxx1112basic_stringIcSt11char_traitsIcESaIcEEEblmdSaNS0_14adl_serializerEEERKS9_j
FN:49,_ZN14social_network11CreateIndexEP16_mongoc_client_tRKNSt7__cxx1112basic_stringIcSt11char_traitsIcESaIcEEES9_b
FNDA:1,_ZN14social_network24init_mongodb_client_poolERKN8nlohmann10basic_jsonISt3mapSt6vectorNSt7__cxx1112basic_stringIcSt11char_traitsIcESaIcEEEblmdSaNS0_14adl_serializerEEERKS9_j
FNDA:1,_ZN14social_network11CreateIndexEP16_mongoc_client_tRKNSt7__cxx1112basic_stringIcSt11char_traitsIcESaIcEEES9_b
FNF:2
FNH:2
DA:11,1
DA:16,2
DA:17,1
DA:18,2
DA:19,4
DA:21,1
DA:23,1
DA:26,1
DA:28,1
DA:29,0
DA:30,0
DA:31,0
DA:32,0
DA:33,0
DA:35,1
DA:36,0
DA:38,0
DA:39,0
DA:40,0
DA:43,1
DA:44,1
DA:45,1
DA:49,1
DA:62,1
DA:63,1
DA:64,1
DA:65,1
DA:66,1
DA:72,1
DA:74,1
DA:75,1
DA:76,0
DA:78,1
DA:79,1
DA:80,1
DA:81,1
DA:83,1
LF:37
LH:27
end_of_record
SF:/social-network-microservices/src/utils_thrift.h
FN:16,_ZN14social_network17get_server_socketERKN8nlohmann10basic_jsonISt3mapSt6vectorNSt7__cxx1112basic_stringIcSt11char_traitsIcESaIcEEEblmdSaNS0_14adl_serializerEEERKS9_i
FNDA:1,_ZN14social_network17get_server_socketERKN8nlohmann10basic_jsonISt3mapSt6vectorNSt7__cxx1112basic_stringIcSt11char_traitsIcESaIcEEEblmdSaNS0_14adl_serializerEEERKS9_i
FNF:1
FNH:1
DA:16,1
DA:17,1
DA:18,1
DA:19,0
DA:20,0
DA:21,0
DA:22,0
DA:24,0
DA:25,0
DA:26,0
DA:27,0
DA:28,0
DA:33,0
DA:35,1
LF:14
LH:4
end_of_record
