TN:
TN:
TN:
TN:
SF:/social-network-microservices/src/ClientPool.h
FN:52,_ZN14social_network10ClientPoolINS_12ThriftClientINS_24SocialGraphServiceClientEEEEC2ERKNSt7__cxx1112basic_stringIcSt11char_traitsIcESaIcEEESC_iiiiiRKN8nlohmann10basic_jsonISt3mapSt6vectorSA_blmdSaNSD_14adl_serializerEEE
FN:73,_ZN14social_network10ClientPoolINS_12ThriftClientINS_24SocialGraphServiceClientEEEED2Ev
FN:81,_ZN14social_network10ClientPoolINS_12ThriftClientINS_24SocialGraphServiceClientEEEE3PopEv
FN:91,_ZZN14social_network10ClientPoolINS_12ThriftClientINS_24SocialGraphServiceClientEEEE3PopEvENKUlvE_clEv
FN:123,_ZN14social_network10ClientPoolINS_12ThriftClientINS_24SocialGraphServiceClientEEEE4PushEPS3_
FN:131,_ZN14social_network10ClientPoolINS_12ThriftClientINS_24SocialGraphServiceClientEEEE6RemoveEPS3_
FN:141,_ZN14social_network10ClientPoolINS_12ThriftClientINS_24SocialGraphServiceClientEEEE9KeepaliveEPS3_
FNDA:1,_ZN14social_network10ClientPoolINS_12ThriftClientINS_24SocialGraphServiceClientEEEEC2ERKNSt7__cxx1112basic_stringIcSt11char_traitsIcESaIcEEESC_iiiiiRKN8nlohmann10basic_jsonISt3mapSt6vectorSA_blmdSaNSD_14adl_serializerEEE
FNDA:0,_ZN14social_network10ClientPoolINS_12ThriftClientINS_24SocialGraphServiceClientEEEED2Ev
FNDA:962,_ZN14social_network10ClientPoolINS_12ThriftClientINS_24SocialGraphServiceClientEEEE3PopEv
FNDA:0,_ZZN14social_network10ClientPoolINS_12ThriftClientINS_24SocialGraphServiceClientEEEE3PopEvENKUlvE_clEv
FNDA:962,_ZN14social_network10ClientPoolINS_12ThriftClientINS_24SocialGraphServiceClientEEEE4PushEPS3_
FNDA:0,_ZN14social_network10ClientPoolINS_12ThriftClientINS_24SocialGraphServiceClientEEEE6RemoveEPS3_
FNDA:961,_ZN14social_network10ClientPoolINS_12ThriftClientINS_24SocialGraphServiceClientEEEE9KeepaliveEPS3_
FNF:7
FNH:4
DA:52,1
DA:55,1
DA:56,1
DA:57,1
DA:58,1
DA:59,1
DA:60,1
DA:61,1
DA:62,1
DA:63,1
DA:65,1
DA:66,0
DA:67,0
DA:69,1
DA:70,1
DA:73,0
DA:74,0
DA:75,0
DA:76,0
DA:78,0
DA:81,962
DA:82,962
DA:84,1924
DA:85,962
DA:88,0
DA:89,0
DA:91,0
DA:92,0
DA:93,0
DA:94,0
DA:95,0
DA:96,0
DA:99,962
DA:100,932
DA:101,932
DA:103,30
DA:104,30
DA:106,962
DA:110,962
DA:112,962
DA:113,0
DA:114,0
DA:115,0
DA:116,0
DA:119,962
DA:123,962
DA:124,1924
DA:125,962
DA:126,962
DA:127,962
DA:128,962
DA:131,0
DA:133,0
DA:134,0
DA:135,0
DA:136,0
DA:137,0
DA:138,0
DA:141,961
DA:142,1924
DA:143,2885
DA:144,962
DA:145,0
DA:147,962
DA:149,961
LF:65
LH:38
end_of_record
SF:/social-network-microservices/src/GenericClient.h
FN:9,_ZN14social_network13GenericClientC2Ev
FN:11,_ZN14social_network13GenericClientD2Ev
FN:11,_ZN14social_network13GenericClientD0Ev
FNDA:30,_ZN14social_network13GenericClientC2Ev
FNDA:0,_ZN14social_network13GenericClientD0Ev
FNDA:0,_ZN14social_network13GenericClientD2Ev
FNF:3
FNH:1
DA:9,30
DA:11,0
LF:2
LH:1
end_of_record
SF:/social-network-microservices/src/ThriftClient.h
FN:73,_ZN14social_network12ThriftClientINS_24SocialGraphServiceClientEEC2ERKNSt7__cxx1112basic_stringIcSt11char_traitsIcESaIcEEEiiRKN8nlohmann10basic_jsonISt3mapSt6vectorS8_blmdSaNSB_14adl_serializerEEE
FN:111,_ZN14social_network12ThriftClientINS_24SocialGraphServiceClientEED2Ev
FN:111,_ZN14social_network12ThriftClientINS_24SocialGraphServiceClientEED0Ev
FN:117,_ZNK14social_network12ThriftClientINS_24SocialGraphServiceClientEE9GetClientEv
FN:122,_ZN14social_network12ThriftClientINS_24SocialGraphServiceClientEE11IsConnectedEv
FN:127,_ZN14social_network12ThriftClientINS_24SocialGraphServiceClientEE7ConnectEv
FN:138,_ZN14social_network12ThriftClientINS_24SocialGraphServiceClientEE10DisconnectEv
FNDA:30,_ZN14social_network12ThriftClientINS_24SocialGraphServiceClientEEC2ERKNSt7__cxx1112basic_stringIcSt11char_traitsIcESaIcEEEiiRKN8nlohmann10basic_jsonISt3mapSt6vectorS8_blmdSaNSB_14adl_serializerEEE
FNDA:0,_ZN14social_network12ThriftClientINS_24SocialGraphServiceClientEED0Ev
FNDA:0,_ZN14social_network12ThriftClientINS_24SocialGraphServiceClientEED2Ev
FNDA:962,_ZNK14social_network12ThriftClientINS_24SocialGraphServiceClientEE9GetClientEv
FNDA:962,_ZN14social_network12ThriftClientINS_24SocialGraphServiceClientEE11IsConnectedEv
FNDA:961,_ZN14social_network12ThriftClientINS_24SocialGraphServiceClientEE7ConnectEv
FNDA:0,_ZN14social_network12ThriftClientINS_24SocialGraphServiceClientEE10DisconnectEv
FNF:7
FNH:4
DA:73,30
DA:74,30
DA:75,30
DA:76,30
DA:77,30
DA:79,30
DA:80,0
DA:81,0
DA:83,0
DA:84,0
DA:85,0
DA:86,0
DA:95,0
DA:96,0
DA:98,30
DA:100,30
DA:101,30
DA:102,30
DA:103,30
DA:104,90
DA:105,60
DA:106,60
DA:107,30
DA:108,30
DA:111,0
DA:112,0
DA:113,0
DA:114,0
DA:117,962
DA:118,962
DA:122,962
DA:123,962
DA:127,961
DA:128,961
DA:130,30
DA:131,0
DA:132,0
DA:135,962
DA:138,0
DA:139,0
DA:141,0
DA:142,0
DA:143,0
DA:146,0
LF:44
LH:24
end_of_record
SF:/social-network-microservices/src/UserService/UserHandler.h
FN:40,_ZN14social_networkL10GetCounterEl
FN:54,_ZN14social_network15GenRandomStringB5cxx11Ei
FN:75,_ZN14social_network11UserHandlerD0Ev
FN:75,_ZN14social_network11UserHandlerD2Ev
FN:103,_ZN14social_network11UserHandlerC2EPSt5mutexRKNSt7__cxx1112basic_stringIcSt11char_traitsIcESaIcEEESA_P17memcached_pool_stP21_mongoc_client_pool_tPNS_10ClientPoolINS_12ThriftClientINS_24SocialGraphServiceClientEEEEE
FN:117,_ZN14social_network11UserHandler18RegisterUserWithIdElRKNSt7__cxx1112basic_stringIcSt11char_traitsIcESaIcEEES8_S8_S8_lRKSt3mapIS6_S6_St4lessIS6_ESaISt4pairIS7_S6_EEE
FN:236,_ZN14social_network11UserHandler12RegisterUserElRKNSt7__cxx1112basic_stringIcSt11char_traitsIcESaIcEEES8_S8_S8_RKSt3mapIS6_S6_St4lessIS6_ESaISt4pairIS7_S6_EEE
FN:384,_ZN14social_network11UserHandler26ComposeCreatorWithUsernameERNS_7CreatorElRKNSt7__cxx1112basic_stringIcSt11char_traitsIcESaIcEEERKSt3mapIS8_S8_St4lessIS8_ESaISt4pairIS9_S8_EEE
FN:544,_ZN14social_network11UserHandler24ComposeCreatorWithUserIdERNS_7CreatorEllRKNSt7__cxx1112basic_stringIcSt11char_traitsIcESaIcEEERKSt3mapIS8_S8_St4lessIS8_ESaISt4pairIS9_S8_EEE
FN:567,_ZN14social_network11UserHandler5LoginERNSt7__cxx1112basic_stringIcSt11char_traitsIcESaIcEEElRKS6_S9_RKSt3mapIS6_S6_St4lessIS6_ESaISt4pairIS8_S6_EEE
FN:759,_ZN14social_network11UserHandler9GetUserIdElRKNSt7__cxx1112basic_stringIcSt11char_traitsIcESaIcEEERKSt3mapIS6_S6_St4lessIS6_ESaISt4pairIS7_S6_EEE
FN:917,_ZN14social_network17HashMacAddressPidERKNSt7__cxx1112basic_stringIcSt11char_traitsIcESaIcEEE
FN:926,_ZN14social_network12GetMachineIdERNSt7__cxx1112basic_stringIcSt11char_traitsIcESaIcEEE
FNDA:0,_ZN14social_networkL10GetCounterEl
FNDA:1161,_ZN14social_network15GenRandomStringB5cxx11Ei
FNDA:0,_ZN14social_network11UserHandlerD0Ev
FNDA:0,_ZN14social_network11UserHandlerD2Ev
FNDA:1,_ZN14social_network11UserHandlerC2EPSt5mutexRKNSt7__cxx1112basic_stringIcSt11char_traitsIcESaIcEEESA_P17memcached_pool_stP21_mongoc_client_pool_tPNS_10ClientPoolINS_12ThriftClientINS_24SocialGraphServiceClientEEEEE
FNDA:1162,_ZN14social_network11UserHandler18RegisterUserWithIdElRKNSt7__cxx1112basic_stringIcSt11char_traitsIcESaIcEEES8_S8_S8_lRKSt3mapIS6_S6_St4lessIS6_ESaISt4pairIS7_S6_EEE
FNDA:0,_ZN14social_network11UserHandler12RegisterUserElRKNSt7__cxx1112basic_stringIcSt11char_traitsIcESaIcEEES8_S8_S8_RKSt3mapIS6_S6_St4lessIS6_ESaISt4pairIS7_S6_EEE
FNDA:0,_ZN14social_network11UserHandler26ComposeCreatorWithUsernameERNS_7CreatorElRKNSt7__cxx1112basic_stringIcSt11char_traitsIcESaIcEEERKSt3mapIS8_S8_St4lessIS8_ESaISt4pairIS9_S8_EEE
FNDA:200,_ZN14social_network11UserHandler24ComposeCreatorWithUserIdERNS_7CreatorEllRKNSt7__cxx1112basic_stringIcSt11char_traitsIcESaIcEEERKSt3mapIS8_S8_St4lessIS8_ESaISt4pairIS9_S8_EEE
FNDA:0,_ZN14social_network11UserHandler5LoginERNSt7__cxx1112basic_stringIcSt11char_traitsIcESaIcEEElRKS6_S9_RKSt3mapIS6_S6_St4lessIS6_ESaISt4pairIS8_S6_EEE
FNDA:75152,_ZN14social_network11UserHandler9GetUserIdElRKNSt7__cxx1112basic_stringIcSt11char_traitsIcESaIcEEERKSt3mapIS6_S6_St4lessIS6_ESaISt4pairIS7_S6_EEE
FNDA:1,_ZN14social_network17HashMacAddressPidERKNSt7__cxx1112basic_stringIcSt11char_traitsIcESaIcEEE
FNDA:1,_ZN14social_network12GetMachineIdERNSt7__cxx1112basic_stringIcSt11char_traitsIcESaIcEEE
FNF:13
FNH:7
DA:40,0
DA:41,0
DA:42,0
DA:43,0
DA:45,0
DA:46,0
DA:48,0
DA:49,0
DA:50,0
DA:54,1161
DA:58,1161
DA:59,2323
DA:60,1162
DA:62,1162
DA:63,1162
DA:64,38336
DA:65,37174
DA:67,2324
DA:75,0
DA:103,1
DA:108,1
DA:109,1
DA:110,1
DA:111,1
DA:112,1
DA:113,1
DA:114,1
DA:115,1
DA:117,1162
DA:123,2324
DA:125,2324
DA:126,2324
DA:127,2324
DA:128,2324
DA:129,2324
DA:131,4648
DA:132,1162
DA:136,1162
DA:137,1162
DA:138,0
DA:139,0
DA:140,0
DA:141,0
DA:144,1162
DA:147,1162
DA:148,1162
DA:150,1162
DA:153,1162
DA:154,1162
DA:155,0
DA:156,0
DA:157,0
DA:158,0
DA:159,0
DA:160,0
DA:161,0
DA:162,0
DA:163,0
DA:164,1162
DA:165,0
DA:166,0
DA:167,0
DA:168,0
DA:169,0
DA:170,0
DA:171,0
DA:172,0
DA:173,0
DA:175,1162
DA:176,1162
DA:177,1162
DA:178,1162
DA:179,1162
DA:180,2324
DA:181,1162
DA:182,2324
DA:183,1162
DA:186,2324
DA:187,4648
DA:188,1162
DA:190,600
DA:191,200
DA:192,400
DA:193,200
DA:195,200
DA:196,200
DA:197,200
DA:198,200
DA:199,200
DA:200,200
DA:202,962
DA:204,962
DA:205,962
DA:207,962
DA:208,962
DA:209,962
DA:210,962
DA:212,962
DA:213,962
DA:214,962
DA:215,0
DA:216,0
DA:217,0
DA:218,0
DA:220,962
DA:222,962
DA:223,0
DA:224,0
DA:225,0
DA:226,0
DA:228,961
DA:231,961
DA:233,1924
DA:234,962
DA:236,0
DA:242,0
DA:243,0
DA:244,0
DA:245,0
DA:246,0
DA:247,0
DA:248,0
DA:251,0
DA:253,0
DA:254,0
DA:255,0
DA:256,0
DA:257,0
DA:259,0
DA:260,0
DA:261,0
DA:262,0
DA:263,0
DA:264,0
DA:265,0
DA:268,0
DA:269,0
DA:271,0
DA:272,0
DA:274,0
DA:275,0
DA:276,0
DA:277,0
DA:279,0
DA:280,0
DA:282,0
DA:286,0
DA:287,0
DA:288,0
DA:289,0
DA:290,0
DA:291,0
DA:294,0
DA:297,0
DA:298,0
DA:300,0
DA:303,0
DA:304,0
DA:305,0
DA:306,0
DA:307,0
DA:308,0
DA:309,0
DA:310,0
DA:311,0
DA:312,0
DA:313,0
DA:314,0
DA:315,0
DA:316,0
DA:317,0
DA:318,0
DA:319,0
DA:320,0
DA:321,0
DA:322,0
DA:323,0
DA:325,0
DA:326,0
DA:327,0
DA:328,0
DA:329,0
DA:330,0
DA:331,0
DA:332,0
DA:333,0
DA:335,0
DA:336,0
DA:337,0
DA:339,0
DA:340,0
DA:341,0
DA:342,0
DA:344,0
DA:345,0
DA:346,0
DA:347,0
DA:348,0
DA:349,0
DA:351,0
DA:353,0
DA:354,0
DA:356,0
DA:357,0
DA:358,0
DA:359,0
DA:361,0
DA:362,0
DA:363,0
DA:364,0
DA:365,0
DA:366,0
DA:367,0
DA:369,0
DA:371,0
DA:372,0
DA:373,0
DA:374,0
DA:375,0
DA:378,0
DA:381,0
DA:382,0
DA:384,0
DA:387,0
DA:388,0
DA:389,0
DA:390,0
DA:391,0
DA:392,0
DA:393,0
DA:394,0
DA:401,0
DA:403,0
DA:404,0
DA:405,0
DA:407,0
DA:408,0
DA:409,0
DA:410,0
DA:411,0
DA:412,0
DA:413,0
DA:414,0
DA:415,0
DA:416,0
DA:418,0
DA:420,0
DA:423,0
DA:424,0
DA:425,0
DA:426,0
DA:427,0
DA:428,0
DA:429,0
DA:434,0
DA:436,0
DA:437,0
DA:438,0
DA:439,0
DA:440,0
DA:441,0
DA:444,0
DA:445,0
DA:446,0
DA:447,0
DA:448,0
DA:449,0
DA:451,0
DA:452,0
DA:454,0
DA:455,0
DA:457,0
DA:459,0
DA:460,0
DA:461,0
DA:463,0
DA:464,0
DA:465,0
DA:466,0
DA:467,0
DA:468,0
DA:469,0
DA:470,0
DA:471,0
DA:472,0
DA:474,0
DA:475,0
DA:476,0
DA:477,0
DA:478,0
DA:479,0
DA:480,0
DA:481,0
DA:482,0
DA:485,0
DA:487,0
DA:488,0
DA:490,0
DA:491,0
DA:492,0
DA:493,0
DA:494,0
DA:495,0
DA:496,0
DA:497,0
DA:498,0
DA:499,0
DA:500,0
DA:503,0
DA:504,0
DA:505,0
DA:506,0
DA:509,0
DA:510,0
DA:511,0
DA:513,0
DA:514,0
DA:518,0
DA:519,0
DA:520,0
DA:521,0
DA:522,0
DA:523,0
DA:525,0
DA:526,0
DA:528,0
DA:529,0
DA:530,0
DA:531,0
DA:532,0
DA:533,0
DA:536,0
DA:538,0
DA:540,0
DA:541,0
DA:542,0
DA:544,200
DA:548,400
DA:549,400
DA:550,400
DA:551,400
DA:552,400
DA:553,400
DA:554,800
DA:555,200
DA:557,400
DA:558,200
DA:559,200
DA:561,200
DA:563,200
DA:564,400
DA:565,200
DA:567,0
DA:571,0
DA:572,0
DA:573,0
DA:574,0
DA:575,0
DA:576,0
DA:577,0
DA:578,0
DA:585,0
DA:587,0
DA:588,0
DA:590,0
DA:591,0
DA:592,0
DA:593,0
DA:594,0
DA:595,0
DA:596,0
DA:597,0
DA:598,0
DA:600,0
DA:603,0
DA:604,0
DA:605,0
DA:606,0
DA:607,0
DA:609,0
DA:611,0
DA:612,0
DA:613,0
DA:614,0
DA:615,0
DA:616,0
DA:617,0
DA:622,0
DA:625,0
DA:626,0
DA:627,0
DA:628,0
DA:629,0
DA:630,0
DA:633,0
DA:634,0
DA:635,0
DA:636,0
DA:637,0
DA:638,0
DA:640,0
DA:641,0
DA:643,0
DA:644,0
DA:646,0
DA:648,0
DA:649,0
DA:652,0
DA:653,0
DA:654,0
DA:655,0
DA:656,0
DA:657,0
DA:658,0
DA:659,0
DA:660,0
DA:661,0
DA:664,0
DA:665,0
DA:666,0
DA:667,0
DA:668,0
DA:669,0
DA:670,0
DA:671,0
DA:672,0
DA:673,0
DA:675,0
DA:679,0
DA:680,0
DA:681,0
DA:682,0
DA:683,0
DA:684,0
DA:685,0
DA:686,0
DA:687,0
DA:689,0
DA:690,0
DA:691,0
DA:692,0
DA:693,0
DA:694,0
DA:695,0
DA:696,0
DA:697,0
DA:699,0
DA:700,0
DA:701,0
DA:702,0
DA:706,0
DA:707,0
DA:709,0
DA:710,0
DA:711,0
DA:713,0
DA:714,0
DA:715,0
DA:716,0
DA:719,0
DA:720,0
DA:722,0
DA:723,0
DA:724,0
DA:725,0
DA:728,0
DA:729,0
DA:730,0
DA:731,0
DA:734,0
DA:736,0
DA:737,0
DA:738,0
DA:740,0
DA:741,0
DA:742,0
DA:744,0
DA:745,0
DA:746,0
DA:747,0
DA:748,0
DA:749,0
DA:750,0
DA:751,0
DA:753,0
DA:756,0
DA:757,0
DA:758,0
DA:759,75152
DA:762,150380
DA:763,150484
DA:764,150481
DA:765,150466
DA:766,150465
DA:767,150454
DA:768,300967
DA:769,75224
DA:776,75233
DA:778,75245
DA:779,150450
DA:781,300969
DA:783,150462
DA:784,150465
DA:785,75235
DA:786,75244
DA:787,75175
DA:788,0
DA:789,0
DA:790,0
DA:791,0
DA:792,0
DA:794,75175
DA:796,0
DA:799,75223
DA:800,75223
DA:801,75223
DA:802,74040
DA:803,74040
DA:804,74027
DA:805,74057
DA:808,1183
DA:810,1183
DA:811,1183
DA:812,0
DA:813,0
DA:814,0
DA:815,0
DA:818,1183
DA:819,1183
DA:820,0
DA:821,0
DA:822,0
DA:823,0
DA:825,1183
DA:826,1183
DA:828,2366
DA:829,4732
DA:831,1183
DA:833,1183
DA:834,1182
DA:835,1182
DA:837,0
DA:838,0
DA:839,0
DA:840,0
DA:841,0
DA:842,0
DA:843,0
DA:844,0
DA:845,0
DA:846,0
DA:848,0
DA:849,0
DA:850,0
DA:851,0
DA:852,0
DA:853,0
DA:854,0
DA:855,0
DA:856,0
DA:859,1182
DA:861,1183
DA:862,1183
DA:864,0
DA:865,0
DA:866,0
DA:867,0
DA:868,0
DA:869,0
DA:870,0
DA:871,0
DA:872,0
DA:873,0
DA:874,0
DA:877,1183
DA:878,1183
DA:879,1183
DA:880,1183
DA:883,75240
DA:885,1183
DA:886,1183
DA:887,0
DA:889,2366
DA:890,2366
DA:891,4732
DA:893,3549
DA:894,2365
DA:895,1183
DA:896,1183
DA:897,1183
DA:898,0
DA:899,0
DA:900,0
DA:902,1183
DA:906,75240
DA:907,150438
DA:908,150478
DA:917,1
DA:918,1
DA:919,2
DA:920,19
DA:921,18
DA:923,2
DA:926,1
DA:927,2
DA:929,2
DA:930,2
DA:931,1
DA:932,1
DA:933,0
DA:934,0
DA:936,2
DA:937,1
DA:938,1
DA:939,0
DA:940,0
DA:942,1
DA:944,2
DA:946,2
DA:947,1
DA:948,1
DA:950,1
DA:951,1
DA:952,0
DA:953,0
DA:955,1
LF:626
LH:174
end_of_record
SF:/social-network-microservices/src/UserService/UserService.cpp
FN:21,_Z13sigintHandleri
FN:23,_Z14handle_sigusr1i
FN:27,main
FN:103,_GLOBAL__sub_I__ZN14social_network11init_loggerEv
FN:103,_Z41__static_initialization_and_destruction_0ii
FNDA:0,_Z13sigintHandleri
FNDA:1,_Z14handle_sigusr1i
FNDA:1,main
FNDA:1,_GLOBAL__sub_I__ZN14social_network11init_loggerEv
FNDA:1,_Z41__static_initialization_and_destruction_0ii
FNF:5
FNH:4
DA:21,0
DA:23,1
DA:24,1
DA:25,0
DA:27,1
DA:28,1
DA:29,1
DA:30,1
DA:32,1
DA:34,1
DA:35,1
DA:36,0
DA:39,1
DA:41,1
DA:43,1
DA:44,1
DA:45,1
DA:46,1
DA:48,1
DA:50,1
DA:51,1
DA:53,1
DA:54,1
DA:57,1
DA:59,1
DA:61,1
DA:62,0
DA:65,1
DA:66,1
DA:67,1
DA:68,0
DA:70,2
DA:72,1
DA:76,1
DA:78,1
DA:79,1
DA:80,0
DA:81,0
DA:83,1
DA:84,3
DA:85,1
DA:86,1
DA:87,0
DA:88,0
DA:91,1
DA:92,1
DA:95,2
DA:99,2
DA:100,6
DA:101,2
DA:102,1
DA:103,3
LF:52
LH:43
end_of_record
SF:/social-network-microservices/src/logger.h
FN:17,_ZN14social_network11init_loggerEv
FNDA:1,_ZN14social_network11init_loggerEv
FNF:1
FNH:1
DA:17,1
DA:19,1
DA:20,1
DA:22,1
DA:23,1
DA:24,2
DA:25,2
DA:26,1
DA:27,1
LF:9
LH:9
end_of_record
SF:/social-network-microservices/src/tracing.h
FN:20,_ZN14social_network13TextMapReaderD2Ev
FN:20,_ZN14social_network13TextMapReaderD0Ev
FN:22,_ZN14social_network13TextMapReaderC2ERKSt3mapINSt7__cxx1112basic_stringIcSt11char_traitsIcESaIcEEES7_St4lessIS7_ESaISt4pairIKS7_S7_EEE
FN:25,_ZNK14social_network13TextMapReader10ForeachKeyESt8functionIFN11opentracing2v28expectedIvSt10error_codeEENS3_11string_viewES7_EE
FN:39,_ZN14social_network13TextMapWriterD2Ev
FN:39,_ZN14social_network13TextMapWriterD0Ev
FN:41,_ZN14social_network13TextMapWriterC2ERSt3mapINSt7__cxx1112basic_stringIcSt11char_traitsIcESaIcEEES7_St4lessIS7_ESaISt4pairIKS7_S7_EEE
FN:44,_ZNK14social_network13TextMapWriter3SetEN11opentracing2v211string_viewES3_
FN:53,_ZN14social_network11SetUpTracerERKNSt7__cxx1112basic_stringIcSt11char_traitsIcESaIcEEES7_
FNDA:0,_ZN14social_network13TextMapReaderD0Ev
FNDA:76587,_ZN14social_network13TextMapReaderD2Ev
FNDA:76580,_ZN14social_network13TextMapReaderC2ERKSt3mapINSt7__cxx1112basic_stringIcSt11char_traitsIcESaIcEEES7_St4lessIS7_ESaISt4pairIKS7_S7_EEE
FNDA:76597,_ZNK14social_network13TextMapReader10ForeachKeyESt8functionIFN11opentracing2v28expectedIvSt10error_codeEENS3_11string_viewES7_EE
FNDA:0,_ZN14social_network13TextMapWriterD0Ev
FNDA:76596,_ZN14social_network13TextMapWriterD2Ev
FNDA:76580,_ZN14social_network13TextMapWriterC2ERSt3mapINSt7__cxx1112basic_stringIcSt11char_traitsIcESaIcEEES7_St4lessIS7_ESaISt4pairIKS7_S7_EEE
FNDA:76552,_ZNK14social_network13TextMapWriter3SetEN11opentracing2v211string_viewES3_
FNDA:1,_ZN14social_network11SetUpTracerERKNSt7__cxx1112basic_stringIcSt11char_traitsIcESaIcEEES7_
FNF:9
FNH:7
DA:20,76587
DA:22,76580
DA:23,76580
DA:25,76597
DA:28,153141
DA:29,153134
DA:30,76559
DA:32,76550
DA:39,76596
DA:41,76580
DA:42,76580
DA:44,76552
DA:45,76552
DA:46,76535
DA:53,1
DA:56,2
DA:63,2
DA:65,1
DA:66,3
DA:70,2
DA:71,1
DA:73,1
DA:75,0
DA:77,0
DA:78,0
DA:83,1
LF:26
LH:23
end_of_record
SF:/social-network-microservices/src/utils.h
FN:14,_ZN14social_network16load_config_fileERKNSt7__cxx1112basic_stringIcSt11char_traitsIcESaIcEEEPN8nlohmann10basic_jsonISt3mapSt6vectorS5_blmdSaNS8_14adl_serializerEEE
FNDA:1,_ZN14social_network16load_config_fileERKNSt7__cxx1112basic_stringIcSt11char_traitsIcESaIcEEEPN8nlohmann10basic_jsonISt3mapSt6vectorS5_blmdSaNS8_14adl_serializerEEE
FNF:1
FNH:1
DA:14,1
DA:15,2
DA:16,1
DA:17,1
DA:18,1
DA:19,1
DA:20,1
DA:23,0
DA:24,0
LF:9
LH:7
end_of_record
SF:/social-network-microservices/src/utils_memcached.h
FN:9,_ZN14social_network26init_memcached_client_poolERKN8nlohmann10basic_jsonISt3mapSt6vectorNSt7__cxx1112basic_stringIcSt11char_traitsIcESaIcEEEblmdSaNS0_14adl_serializerEEERKS9_jj
FNDA:1,_ZN14social_network26init_memcached_client_poolERKN8nlohmann10basic_jsonISt3mapSt6vectorNSt7__cxx1112basic_stringIcSt11char_traitsIcESaIcEEEblmdSaNS0_14adl_serializerEEERKS9_jj
FNF:1
FNH:1
DA:9,1
DA:15,2
DA:16,1
DA:17,1
DA:18,2
DA:19,1
DA:20,1
DA:21,1
DA:22,1
DA:23,1
DA:27,1
DA:28,2
LF:12
LH:12
end_of_record
SF:/social-network-microservices/src/utils_mongodb.h
FN:11,_ZN14social_network24init_mongodb_client_poolERKN8nlohmann10basic_jsonISt3mapSt6vectorNSt7__cxx1112basic_stringIcSt11char_traitsIcESaIcEEEblmdSaNS0_14adl_serializerEEERKS9_j
FN:49,_ZN14social_network11CreateIndexEP16_mongoc_client_tRKNSt7__cxx1112basic_stringIcSt11char_traitsIcESaIcEEES9_b
FNDA:1,_ZN14social_network24init_mongodb_client_poolERKN8nlohmann10basic_jsonISt3mapSt6vectorNSt7__cxx1112basic_stringIcSt11char_traitsIcESaIcEEEblmdSaNS0_14adl_serializerEEERKS9_j
FNDA:1,_ZN14social_network11CreateIndexEP16_mongoc_client_tRKNSt7__cxx1112basic_stringIcSt11char_traitsIcESaIcEEES9_b
FNF:2
FNH:2
DA:11,1
DA:16,2
DA:17,1
DA:18,2
DA:19,4
DA:21,1
DA:23,1
DA:26,1
DA:28,1
DA:29,0
DA:30,0
DA:31,0
DA:32,0
DA:33,0
DA:35,1
DA:36,0
DA:38,0
DA:39,0
DA:40,0
DA:43,1
DA:44,1
DA:45,1
DA:49,1
DA:62,1
DA:63,1
DA:64,1
DA:65,1
DA:66,1
DA:72,1
DA:74,1
DA:75,1
DA:76,0
DA:78,1
DA:79,1
DA:80,1
DA:81,1
DA:83,1
LF:37
LH:27
end_of_record
SF:/social-network-microservices/src/utils_thrift.h
FN:16,_ZN14social_network17get_server_socketERKN8nlohmann10basic_jsonISt3mapSt6vectorNSt7__cxx1112basic_stringIcSt11char_traitsIcESaIcEEEblmdSaNS0_14adl_serializerEEERKS9_i
FNDA:1,_ZN14social_network17get_server_socketERKN8nlohmann10basic_jsonISt3mapSt6vectorNSt7__cxx1112basic_stringIcSt11char_traitsIcESaIcEEEblmdSaNS0_14adl_serializerEEERKS9_i
FNF:1
FNH:1
DA:16,1
DA:17,1
DA:18,1
DA:19,0
DA:20,0
DA:21,0
DA:22,0
DA:24,0
DA:25,0
DA:26,0
DA:27,0
DA:28,0
DA:33,0
DA:35,1
LF:14
LH:4
end_of_record
