TN:
TN:
TN:
TN:
TN:
SF:/social-network-microservices/src/ClientPool.h
FN:52,_ZN14social_network10ClientPoolINS_12ThriftClientINS_23UrlShortenServiceClientEEEEC2ERKNSt7__cxx1112basic_stringIcSt11char_traitsIcESaIcEEESC_iiiiiRKN8nlohmann10basic_jsonISt3mapSt6vectorSA_blmdSaNSD_14adl_serializerEEE
FN:52,_ZN14social_network10ClientPoolINS_12ThriftClientINS_24UserMentionServiceClientEEEEC2ERKNSt7__cxx1112basic_stringIcSt11char_traitsIcESaIcEEESC_iiiiiRKN8nlohmann10basic_jsonISt3mapSt6vectorSA_blmdSaNSD_14adl_serializerEEE
FN:73,_ZN14social_network10ClientPoolINS_12ThriftClientINS_24UserMentionServiceClientEEEED2Ev
FN:73,_ZN14social_network10ClientPoolINS_12ThriftClientINS_23UrlShortenServiceClientEEEED2Ev
FN:81,_ZN14social_network10ClientPoolINS_12ThriftClientINS_23UrlShortenServiceClientEEEE3PopEv
FN:81,_ZN14social_network10ClientPoolINS_12ThriftClientINS_24UserMentionServiceClientEEEE3PopEv
FN:91,_ZZN14social_network10ClientPoolINS_12ThriftClientINS_23UrlShortenServiceClientEEEE3PopEvENKUlvE_clEv
FN:91,_ZZN14social_network10ClientPoolINS_12ThriftClientINS_24UserMentionServiceClientEEEE3PopEvENKUlvE_clEv
FN:123,_ZN14social_network10ClientPoolINS_12ThriftClientINS_23UrlShortenServiceClientEEEE4PushEPS3_
FN:123,_ZN14social_network10ClientPoolINS_12ThriftClientINS_24UserMentionServiceClientEEEE4PushEPS3_
FN:131,_ZN14social_network10ClientPoolINS_12ThriftClientINS_23UrlShortenServiceClientEEEE6RemoveEPS3_
FN:131,_ZN14social_network10ClientPoolINS_12ThriftClientINS_24UserMentionServiceClientEEEE6RemoveEPS3_
FN:141,_ZN14social_network10ClientPoolINS_12ThriftClientINS_24UserMentionServiceClientEEEE9KeepaliveEPS3_
FN:141,_ZN14social_network10ClientPoolINS_12ThriftClientINS_23UrlShortenServiceClientEEEE9KeepaliveEPS3_
FNDA:1,_ZN14social_network10ClientPoolINS_12ThriftClientINS_24UserMentionServiceClientEEEEC2ERKNSt7__cxx1112basic_stringIcSt11char_traitsIcESaIcEEESC_iiiiiRKN8nlohmann10basic_jsonISt3mapSt6vectorSA_blmdSaNSD_14adl_serializerEEE
FNDA:1,_ZN14social_network10ClientPoolINS_12ThriftClientINS_23UrlShortenServiceClientEEEEC2ERKNSt7__cxx1112basic_stringIcSt11char_traitsIcESaIcEEESC_iiiiiRKN8nlohmann10basic_jsonISt3mapSt6vectorSA_blmdSaNSD_14adl_serializerEEE
FNDA:0,_ZN14social_network10ClientPoolINS_12ThriftClientINS_24UserMentionServiceClientEEEED2Ev
FNDA:0,_ZN14social_network10ClientPoolINS_12ThriftClientINS_23UrlShortenServiceClientEEEED2Ev
FNDA:200,_ZN14social_network10ClientPoolINS_12ThriftClientINS_24UserMentionServiceClientEEEE3PopEv
FNDA:200,_ZN14social_network10ClientPoolINS_12ThriftClientINS_23UrlShortenServiceClientEEEE3PopEv
FNDA:0,_ZZN14social_network10ClientPoolINS_12ThriftClientINS_24UserMentionServiceClientEEEE3PopEvENKUlvE_clEv
FNDA:0,_ZZN14social_network10ClientPoolINS_12ThriftClientINS_23UrlShortenServiceClientEEEE3PopEvENKUlvE_clEv
FNDA:134,_ZN14social_network10ClientPoolINS_12ThriftClientINS_24UserMentionServiceClientEEEE4PushEPS3_
FNDA:134,_ZN14social_network10ClientPoolINS_12ThriftClientINS_23UrlShortenServiceClientEEEE4PushEPS3_
FNDA:66,_ZN14social_network10ClientPoolINS_12ThriftClientINS_24UserMentionServiceClientEEEE6RemoveEPS3_
FNDA:66,_ZN14social_network10ClientPoolINS_12ThriftClientINS_23UrlShortenServiceClientEEEE6RemoveEPS3_
FNDA:200,_ZN14social_network10ClientPoolINS_12ThriftClientINS_24UserMentionServiceClientEEEE9KeepaliveEPS3_
FNDA:200,_ZN14social_network10ClientPoolINS_12ThriftClientINS_23UrlShortenServiceClientEEEE9KeepaliveEPS3_
FNF:14
FNH:10
DA:52,2
DA:55,2
DA:56,2
DA:57,2
DA:58,2
DA:59,2
DA:60,2
DA:61,2
DA:62,2
DA:63,2
DA:65,2
DA:66,0
DA:67,0
DA:69,2
DA:70,2
DA:73,0
DA:74,0
DA:75,0
DA:76,0
DA:78,0
DA:81,400
DA:82,400
DA:84,800
DA:85,400
DA:88,0
DA:89,0
DA:91,0
DA:92,0
DA:93,0
DA:94,0
DA:95,0
DA:96,0
DA:99,400
DA:100,266
DA:101,266
DA:103,134
DA:104,134
DA:106,400
DA:110,400
DA:112,400
DA:113,0
DA:114,0
DA:115,0
DA:116,0
DA:119,400
DA:123,268
DA:124,536
DA:125,268
DA:126,268
DA:127,268
DA:128,268
DA:131,132
DA:133,132
DA:134,264
DA:135,132
DA:136,132
DA:137,132
DA:138,132
DA:141,400
DA:142,800
DA:143,1200
DA:144,400
DA:145,132
DA:147,268
DA:149,400
LF:65
LH:46
end_of_record
SF:/social-network-microservices/src/GenericClient.h
FN:9,_ZN14social_network13GenericClientC2Ev
FN:11,_ZN14social_network13GenericClientD0Ev
FN:11,_ZN14social_network13GenericClientD2Ev
FNDA:134,_ZN14social_network13GenericClientC2Ev
FNDA:0,_ZN14social_network13GenericClientD0Ev
FNDA:132,_ZN14social_network13GenericClientD2Ev
FNF:3
FNH:2
DA:9,134
DA:11,132
LF:2
LH:2
end_of_record
SF:/social-network-microservices/src/TextService/TextHandler.h
FN:23,_ZN14social_network11TextHandlerD2Ev
FN:23,_ZN14social_network11TextHandlerD0Ev
FN:33,_ZN14social_network11TextHandlerC2EPNS_10ClientPoolINS_12ThriftClientINS_23UrlShortenServiceClientEEEEEPNS1_INS2_INS_24UserMentionServiceClientEEEEE
FN:41,_ZN14social_network11TextHandler11ComposeTextERNS_17TextServiceReturnElRKNSt7__cxx1112basic_stringIcSt11char_traitsIcESaIcEEERKSt3mapIS8_S8_St4lessIS8_ESaISt4pairIS9_S8_EEE
FN:79,_ZZN14social_network11TextHandler11ComposeTextERNS_17TextServiceReturnElRKNSt7__cxx1112basic_stringIcSt11char_traitsIcESaIcEEERKSt3mapIS8_S8_St4lessIS8_ESaISt4pairIS9_S8_EEEENKUlvE_clEv
FN:109,_ZZN14social_network11TextHandler11ComposeTextERNS_17TextServiceReturnElRKNSt7__cxx1112basic_stringIcSt11char_traitsIcESaIcEEERKSt3mapIS8_S8_St4lessIS8_ESaISt4pairIS9_S8_EEEENKUlvE0_clEv
FNDA:0,_ZN14social_network11TextHandlerD0Ev
FNDA:0,_ZN14social_network11TextHandlerD2Ev
FNDA:1,_ZN14social_network11TextHandlerC2EPNS_10ClientPoolINS_12ThriftClientINS_23UrlShortenServiceClientEEEEEPNS1_INS2_INS_24UserMentionServiceClientEEEEE
FNDA:200,_ZN14social_network11TextHandler11ComposeTextERNS_17TextServiceReturnElRKNSt7__cxx1112basic_stringIcSt11char_traitsIcESaIcEEERKSt3mapIS8_S8_St4lessIS8_ESaISt4pairIS9_S8_EEE
FNDA:200,_ZZN14social_network11TextHandler11ComposeTextERNS_17TextServiceReturnElRKNSt7__cxx1112basic_stringIcSt11char_traitsIcESaIcEEERKSt3mapIS8_S8_St4lessIS8_ESaISt4pairIS9_S8_EEEENKUlvE_clEv
FNDA:200,_ZZN14social_network11TextHandler11ComposeTextERNS_17TextServiceReturnElRKNSt7__cxx1112basic_stringIcSt11char_traitsIcESaIcEEERKSt3mapIS8_S8_St4lessIS8_ESaISt4pairIS9_S8_EEEENKUlvE0_clEv
FNF:6
FNH:4
DA:23,0
DA:33,1
DA:36,1
DA:37,1
DA:38,1
DA:39,1
DA:41,200
DA:45,400
DA:48,400
DA:49,400
DA:50,400
DA:51,400
DA:52,400
DA:53,800
DA:54,200
DA:56,400
DA:57,400
DA:58,400
DA:59,400
DA:60,200
DA:61,0
DA:62,0
DA:63,0
DA:64,0
DA:67,400
DA:68,200
DA:69,200
DA:70,200
DA:71,0
DA:72,0
DA:73,0
DA:77,400
DA:79,200
DA:80,400
DA:81,800
DA:83,400
DA:84,400
DA:85,200
DA:87,400
DA:88,200
DA:89,0
DA:90,0
DA:91,0
DA:92,0
DA:94,200
DA:95,200
DA:97,600
DA:98,0
DA:99,0
DA:100,0
DA:101,0
DA:103,200
DA:105,800
DA:106,400
DA:107,400
DA:109,200
DA:110,400
DA:112,800
DA:114,400
DA:115,400
DA:116,600
DA:117,400
DA:119,400
DA:120,200
DA:121,0
DA:122,0
DA:123,0
DA:124,0
DA:126,200
DA:127,200
DA:129,400
DA:130,400
DA:131,400
DA:132,0
DA:133,0
DA:134,0
DA:135,0
DA:138,200
DA:140,800
DA:141,400
DA:142,400
DA:144,400
DA:146,200
DA:147,0
DA:148,0
DA:149,0
DA:152,400
DA:154,200
DA:155,0
DA:156,0
DA:157,0
DA:160,400
DA:161,200
DA:162,0
DA:163,0
DA:164,0
DA:165,0
DA:166,0
DA:167,0
DA:168,0
DA:169,0
DA:172,200
DA:175,200
DA:176,200
DA:177,200
DA:180,400
DA:182,200
DA:183,200
LF:108
LH:70
end_of_record
SF:/social-network-microservices/src/TextService/TextService.cpp
FN:19,_Z13sigintHandleri
FN:21,_Z14handle_sigusr1i
FN:25,main
FN:69,_GLOBAL__sub_I__ZN14social_network11init_loggerEv
FN:69,_Z41__static_initialization_and_destruction_0ii
FNDA:0,_Z13sigintHandleri
FNDA:1,_Z14handle_sigusr1i
FNDA:1,main
FNDA:1,_GLOBAL__sub_I__ZN14social_network11init_loggerEv
FNDA:1,_Z41__static_initialization_and_destruction_0ii
FNF:5
FNH:4
DA:19,0
DA:21,1
DA:22,1
DA:23,0
DA:25,1
DA:26,1
DA:27,1
DA:28,1
DA:29,1
DA:31,1
DA:32,1
DA:33,1
DA:35,1
DA:36,1
DA:37,1
DA:38,1
DA:39,1
DA:41,1
DA:42,1
DA:43,1
DA:45,1
DA:47,1
DA:51,1
DA:55,1
DA:57,1
DA:59,2
DA:62,2
DA:63,6
DA:65,2
DA:66,1
DA:68,0
DA:69,3
LF:32
LH:29
end_of_record
SF:/social-network-microservices/src/ThriftClient.h
FN:73,_ZN14social_network12ThriftClientINS_24UserMentionServiceClientEEC2ERKNSt7__cxx1112basic_stringIcSt11char_traitsIcESaIcEEEiiRKN8nlohmann10basic_jsonISt3mapSt6vectorS8_blmdSaNSB_14adl_serializerEEE
FN:73,_ZN14social_network12ThriftClientINS_23UrlShortenServiceClientEEC2ERKNSt7__cxx1112basic_stringIcSt11char_traitsIcESaIcEEEiiRKN8nlohmann10basic_jsonISt3mapSt6vectorS8_blmdSaNSB_14adl_serializerEEE
FN:111,_ZN14social_network12ThriftClientINS_24UserMentionServiceClientEED2Ev
FN:111,_ZN14social_network12ThriftClientINS_24UserMentionServiceClientEED0Ev
FN:111,_ZN14social_network12ThriftClientINS_23UrlShortenServiceClientEED0Ev
FN:111,_ZN14social_network12ThriftClientINS_23UrlShortenServiceClientEED2Ev
FN:117,_ZNK14social_network12ThriftClientINS_23UrlShortenServiceClientEE9GetClientEv
FN:117,_ZNK14social_network12ThriftClientINS_24UserMentionServiceClientEE9GetClientEv
FN:122,_ZN14social_network12ThriftClientINS_24UserMentionServiceClientEE11IsConnectedEv
FN:122,_ZN14social_network12ThriftClientINS_23UrlShortenServiceClientEE11IsConnectedEv
FN:127,_ZN14social_network12ThriftClientINS_23UrlShortenServiceClientEE7ConnectEv
FN:127,_ZN14social_network12ThriftClientINS_24UserMentionServiceClientEE7ConnectEv
FN:138,_ZN14social_network12ThriftClientINS_24UserMentionServiceClientEE10DisconnectEv
FN:138,_ZN14social_network12ThriftClientINS_23UrlShortenServiceClientEE10DisconnectEv
FNDA:67,_ZN14social_network12ThriftClientINS_24UserMentionServiceClientEEC2ERKNSt7__cxx1112basic_stringIcSt11char_traitsIcESaIcEEEiiRKN8nlohmann10basic_jsonISt3mapSt6vectorS8_blmdSaNSB_14adl_serializerEEE
FNDA:67,_ZN14social_network12ThriftClientINS_23UrlShortenServiceClientEEC2ERKNSt7__cxx1112basic_stringIcSt11char_traitsIcESaIcEEEiiRKN8nlohmann10basic_jsonISt3mapSt6vectorS8_blmdSaNSB_14adl_serializerEEE
FNDA:66,_ZN14social_network12ThriftClientINS_24UserMentionServiceClientEED0Ev
FNDA:66,_ZN14social_network12ThriftClientINS_24UserMentionServiceClientEED2Ev
FNDA:66,_ZN14social_network12ThriftClientINS_23UrlShortenServiceClientEED0Ev
FNDA:66,_ZN14social_network12ThriftClientINS_23UrlShortenServiceClientEED2Ev
FNDA:200,_ZNK14social_network12ThriftClientINS_24UserMentionServiceClientEE9GetClientEv
FNDA:200,_ZNK14social_network12ThriftClientINS_23UrlShortenServiceClientEE9GetClientEv
FNDA:266,_ZN14social_network12ThriftClientINS_24UserMentionServiceClientEE11IsConnectedEv
FNDA:266,_ZN14social_network12ThriftClientINS_23UrlShortenServiceClientEE11IsConnectedEv
FNDA:200,_ZN14social_network12ThriftClientINS_24UserMentionServiceClientEE7ConnectEv
FNDA:200,_ZN14social_network12ThriftClientINS_23UrlShortenServiceClientEE7ConnectEv
FNDA:66,_ZN14social_network12ThriftClientINS_24UserMentionServiceClientEE10DisconnectEv
FNDA:66,_ZN14social_network12ThriftClientINS_23UrlShortenServiceClientEE10DisconnectEv
FNF:14
FNH:14
DA:73,134
DA:74,134
DA:75,134
DA:76,134
DA:77,134
DA:79,134
DA:80,0
DA:81,0
DA:83,0
DA:84,0
DA:85,0
DA:86,0
DA:95,0
DA:96,0
DA:98,134
DA:100,134
DA:101,134
DA:102,134
DA:103,134
DA:104,402
DA:105,268
DA:106,268
DA:107,134
DA:108,134
DA:111,264
DA:112,132
DA:113,132
DA:114,396
DA:117,400
DA:118,400
DA:122,532
DA:123,532
DA:127,400
DA:128,400
DA:130,134
DA:131,0
DA:132,0
DA:135,400
DA:138,132
DA:139,132
DA:141,132
DA:142,0
DA:143,0
DA:146,132
LF:44
LH:32
end_of_record
SF:/social-network-microservices/src/logger.h
FN:17,_ZN14social_network11init_loggerEv
FNDA:1,_ZN14social_network11init_loggerEv
FNF:1
FNH:1
DA:17,1
DA:19,1
DA:20,1
DA:22,1
DA:23,1
DA:24,2
DA:25,2
DA:26,1
DA:27,1
LF:9
LH:9
end_of_record
SF:/social-network-microservices/src/tracing.h
FN:20,_ZN14social_network13TextMapReaderD2Ev
FN:20,_ZN14social_network13TextMapReaderD0Ev
FN:22,_ZN14social_network13TextMapReaderC2ERKSt3mapINSt7__cxx1112basic_stringIcSt11char_traitsIcESaIcEEES7_St4lessIS7_ESaISt4pairIKS7_S7_EEE
FN:25,_ZNK14social_network13TextMapReader10ForeachKeyESt8functionIFN11opentracing2v28expectedIvSt10error_codeEENS3_11string_viewES7_EE
FN:39,_ZN14social_network13TextMapWriterD2Ev
FN:39,_ZN14social_network13TextMapWriterD0Ev
FN:41,_ZN14social_network13TextMapWriterC2ERSt3mapINSt7__cxx1112basic_stringIcSt11char_traitsIcESaIcEEES7_St4lessIS7_ESaISt4pairIKS7_S7_EEE
FN:44,_ZNK14social_network13TextMapWriter3SetEN11opentracing2v211string_viewES3_
FN:53,_ZN14social_network11SetUpTracerERKNSt7__cxx1112basic_stringIcSt11char_traitsIcESaIcEEES7_
FNDA:0,_ZN14social_network13TextMapReaderD0Ev
FNDA:200,_ZN14social_network13TextMapReaderD2Ev
FNDA:200,_ZN14social_network13TextMapReaderC2ERKSt3mapINSt7__cxx1112basic_stringIcSt11char_traitsIcESaIcEEES7_St4lessIS7_ESaISt4pairIKS7_S7_EEE
FNDA:200,_ZNK14social_network13TextMapReader10ForeachKeyESt8functionIFN11opentracing2v28expectedIvSt10error_codeEENS3_11string_viewES7_EE
FNDA:0,_ZN14social_network13TextMapWriterD0Ev
FNDA:600,_ZN14social_network13TextMapWriterD2Ev
FNDA:599,_ZN14social_network13TextMapWriterC2ERSt3mapINSt7__cxx1112basic_stringIcSt11char_traitsIcESaIcEEES7_St4lessIS7_ESaISt4pairIKS7_S7_EEE
FNDA:600,_ZNK14social_network13TextMapWriter3SetEN11opentracing2v211string_viewES3_
FNDA:1,_ZN14social_network11SetUpTracerERKNSt7__cxx1112basic_stringIcSt11char_traitsIcESaIcEEES7_
FNF:9
FNH:7
DA:20,200
DA:22,200
DA:23,200
DA:25,200
DA:28,400
DA:29,400
DA:30,200
DA:32,200
DA:39,600
DA:41,599
DA:42,599
DA:44,600
DA:45,600
DA:46,599
DA:53,1
DA:56,2
DA:63,2
DA:65,1
DA:66,3
DA:70,2
DA:71,1
DA:73,1
DA:75,0
DA:77,0
DA:78,0
DA:83,1
LF:26
LH:23
end_of_record
SF:/social-network-microservices/src/utils.h
FN:14,_ZN14social_network16load_config_fileERKNSt7__cxx1112basic_stringIcSt11char_traitsIcESaIcEEEPN8nlohmann10basic_jsonISt3mapSt6vectorS5_blmdSaNS8_14adl_serializerEEE
FNDA:1,_ZN14social_network16load_config_fileERKNSt7__cxx1112basic_stringIcSt11char_traitsIcESaIcEEEPN8nlohmann10basic_jsonISt3mapSt6vectorS5_blmdSaNS8_14adl_serializerEEE
FNF:1
FNH:1
DA:14,1
DA:15,2
DA:16,1
DA:17,1
DA:18,1
DA:19,1
DA:20,1
DA:23,0
DA:24,0
LF:9
LH:7
end_of_record
SF:/social-network-microservices/src/utils_thrift.h
FN:16,_ZN14social_network17get_server_socketERKN8nlohmann10basic_jsonISt3mapSt6vectorNSt7__cxx1112basic_stringIcSt11char_traitsIcESaIcEEEblmdSaNS0_14adl_serializerEEERKS9_i
FNDA:1,_ZN14social_network17get_server_socketERKN8nlohmann10basic_jsonISt3mapSt6vectorNSt7__cxx1112basic_stringIcSt11char_traitsIcESaIcEEEblmdSaNS0_14adl_serializerEEERKS9_i
FNF:1
FNH:1
DA:16,1
DA:17,1
DA:18,1
DA:19,0
DA:20,0
DA:21,0
DA:22,0
DA:24,0
DA:25,0
DA:26,0
DA:27,0
DA:28,0
DA:33,0
DA:35,1
LF:14
LH:4
end_of_record
