TN:
TN:
TN:
TN:
TN:
TN:
TN:
TN:
TN:
TN:
SF:/social-network-microservices/src/ClientPool.h
FN:52,_ZN14social_network10ClientPoolINS_12ThriftClientINS_17UserServiceClientEEEEC2ERKNSt7__cxx1112basic_stringIcSt11char_traitsIcESaIcEEESC_iiiiiRKN8nlohmann10basic_jsonISt3mapSt6vectorSA_blmdSaNSD_14adl_serializerEEE
FN:52,_ZN14social_network10ClientPoolINS_12ThriftClientINS_25UserTimelineServiceClientEEEEC2ERKNSt7__cxx1112basic_stringIcSt11char_traitsIcESaIcEEESC_iiiiiRKN8nlohmann10basic_jsonISt3mapSt6vectorSA_blmdSaNSD_14adl_serializerEEE
FN:52,_ZN14social_network10ClientPoolINS_12ThriftClientINS_21UniqueIdServiceClientEEEEC2ERKNSt7__cxx1112basic_stringIcSt11char_traitsIcESaIcEEESC_iiiiiRKN8nlohmann10basic_jsonISt3mapSt6vectorSA_blmdSaNSD_14adl_serializerEEE
FN:52,_ZN14social_network10ClientPoolINS_12ThriftClientINS_24PostStorageServiceClientEEEEC2ERKNSt7__cxx1112basic_stringIcSt11char_traitsIcESaIcEEESC_iiiiiRKN8nlohmann10basic_jsonISt3mapSt6vectorSA_blmdSaNSD_14adl_serializerEEE
FN:52,_ZN14social_network10ClientPoolINS_12ThriftClientINS_17TextServiceClientEEEEC2ERKNSt7__cxx1112basic_stringIcSt11char_traitsIcESaIcEEESC_iiiiiRKN8nlohmann10basic_jsonISt3mapSt6vectorSA_blmdSaNSD_14adl_serializerEEE
FN:52,_ZN14social_network10ClientPoolINS_12ThriftClientINS_25HomeTimelineServiceClientEEEEC2ERKNSt7__cxx1112basic_stringIcSt11char_traitsIcESaIcEEESC_iiiiiRKN8nlohmann10basic_jsonISt3mapSt6vectorSA_blmdSaNSD_14adl_serializerEEE
FN:52,_ZN14social_network10ClientPoolINS_12ThriftClientINS_18MediaServiceClientEEEEC2ERKNSt7__cxx1112basic_stringIcSt11char_traitsIcESaIcEEESC_iiiiiRKN8nlohmann10basic_jsonISt3mapSt6vectorSA_blmdSaNSD_14adl_serializerEEE
FN:73,_ZN14social_network10ClientPoolINS_12ThriftClientINS_17UserServiceClientEEEED2Ev
FN:73,_ZN14social_network10ClientPoolINS_12ThriftClientINS_18MediaServiceClientEEEED2Ev
FN:73,_ZN14social_network10ClientPoolINS_12ThriftClientINS_25UserTimelineServiceClientEEEED2Ev
FN:73,_ZN14social_network10ClientPoolINS_12ThriftClientINS_24PostStorageServiceClientEEEED2Ev
FN:73,_ZN14social_network10ClientPoolINS_12ThriftClientINS_17TextServiceClientEEEED2Ev
FN:73,_ZN14social_network10ClientPoolINS_12ThriftClientINS_25HomeTimelineServiceClientEEEED2Ev
FN:73,_ZN14social_network10ClientPoolINS_12ThriftClientINS_21UniqueIdServiceClientEEEED2Ev
FN:81,_ZN14social_network10ClientPoolINS_12ThriftClientINS_17TextServiceClientEEEE3PopEv
FN:81,_ZN14social_network10ClientPoolINS_12ThriftClientINS_18MediaServiceClientEEEE3PopEv
FN:81,_ZN14social_network10ClientPoolINS_12ThriftClientINS_21UniqueIdServiceClientEEEE3PopEv
FN:81,_ZN14social_network10ClientPoolINS_12ThriftClientINS_24PostStorageServiceClientEEEE3PopEv
FN:81,_ZN14social_network10ClientPoolINS_12ThriftClientINS_25UserTimelineServiceClientEEEE3PopEv
FN:81,_ZN14social_network10ClientPoolINS_12ThriftClientINS_17UserServiceClientEEEE3PopEv
FN:81,_ZN14social_network10ClientPoolINS_12ThriftClientINS_25HomeTimelineServiceClientEEEE3PopEv
FN:91,_ZZN14social_network10ClientPoolINS_12ThriftClientINS_21UniqueIdServiceClientEEEE3PopEvENKUlvE_clEv
FN:91,_ZZN14social_network10ClientPoolINS_12ThriftClientINS_25HomeTimelineServiceClientEEEE3PopEvENKUlvE_clEv
FN:91,_ZZN14social_network10ClientPoolINS_12ThriftClientINS_17TextServiceClientEEEE3PopEvENKUlvE_clEv
FN:91,_ZZN14social_network10ClientPoolINS_12ThriftClientINS_17UserServiceClientEEEE3PopEvENKUlvE_clEv
FN:91,_ZZN14social_network10ClientPoolINS_12ThriftClientINS_18MediaServiceClientEEEE3PopEvENKUlvE_clEv
FN:91,_ZZN14social_network10ClientPoolINS_12ThriftClientINS_25UserTimelineServiceClientEEEE3PopEvENKUlvE_clEv
FN:91,_ZZN14social_network10ClientPoolINS_12ThriftClientINS_24PostStorageServiceClientEEEE3PopEvENKUlvE_clEv
FN:123,_ZN14social_network10ClientPoolINS_12ThriftClientINS_25HomeTimelineServiceClientEEEE4PushEPS3_
FN:123,_ZN14social_network10ClientPoolINS_12ThriftClientINS_24PostStorageServiceClientEEEE4PushEPS3_
FN:123,_ZN14social_network10ClientPoolINS_12ThriftClientINS_21UniqueIdServiceClientEEEE4PushEPS3_
FN:123,_ZN14social_network10ClientPoolINS_12ThriftClientINS_18MediaServiceClientEEEE4PushEPS3_
FN:123,_ZN14social_network10ClientPoolINS_12ThriftClientINS_25UserTimelineServiceClientEEEE4PushEPS3_
FN:123,_ZN14social_network10ClientPoolINS_12ThriftClientINS_17TextServiceClientEEEE4PushEPS3_
FN:123,_ZN14social_network10ClientPoolINS_12ThriftClientINS_17UserServiceClientEEEE4PushEPS3_
FN:131,_ZN14social_network10ClientPoolINS_12ThriftClientINS_21UniqueIdServiceClientEEEE6RemoveEPS3_
FN:131,_ZN14social_network10ClientPoolINS_12ThriftClientINS_17TextServiceClientEEEE6RemoveEPS3_
FN:131,_ZN14social_network10ClientPoolINS_12ThriftClientINS_25UserTimelineServiceClientEEEE6RemoveEPS3_
FN:131,_ZN14social_network10ClientPoolINS_12ThriftClientINS_25HomeTimelineServiceClientEEEE6RemoveEPS3_
FN:131,_ZN14social_network10ClientPoolINS_12ThriftClientINS_17UserServiceClientEEEE6RemoveEPS3_
FN:131,_ZN14social_network10ClientPoolINS_12ThriftClientINS_18MediaServiceClientEEEE6RemoveEPS3_
FN:131,_ZN14social_network10ClientPoolINS_12ThriftClientINS_24PostStorageServiceClientEEEE6RemoveEPS3_
FN:141,_ZN14social_network10ClientPoolINS_12ThriftClientINS_24PostStorageServiceClientEEEE9KeepaliveEPS3_
FN:141,_ZN14social_network10ClientPoolINS_12ThriftClientINS_17UserServiceClientEEEE9KeepaliveEPS3_
FN:141,_ZN14social_network10ClientPoolINS_12ThriftClientINS_25UserTimelineServiceClientEEEE9KeepaliveEPS3_
FN:141,_ZN14social_network10ClientPoolINS_12ThriftClientINS_17TextServiceClientEEEE9KeepaliveEPS3_
FN:141,_ZN14social_network10ClientPoolINS_12ThriftClientINS_21UniqueIdServiceClientEEEE9KeepaliveEPS3_
FN:141,_ZN14social_network10ClientPoolINS_12ThriftClientINS_25HomeTimelineServiceClientEEEE9KeepaliveEPS3_
FN:141,_ZN14social_network10ClientPoolINS_12ThriftClientINS_18MediaServiceClientEEEE9KeepaliveEPS3_
FNDA:1,_ZN14social_network10ClientPoolINS_12ThriftClientINS_21UniqueIdServiceClientEEEEC2ERKNSt7__cxx1112basic_stringIcSt11char_traitsIcESaIcEEESC_iiiiiRKN8nlohmann10basic_jsonISt3mapSt6vectorSA_blmdSaNSD_14adl_serializerEEE
FNDA:1,_ZN14social_network10ClientPoolINS_12ThriftClientINS_25HomeTimelineServiceClientEEEEC2ERKNSt7__cxx1112basic_stringIcSt11char_traitsIcESaIcEEESC_iiiiiRKN8nlohmann10basic_jsonISt3mapSt6vectorSA_blmdSaNSD_14adl_serializerEEE
FNDA:1,_ZN14social_network10ClientPoolINS_12ThriftClientINS_18MediaServiceClientEEEEC2ERKNSt7__cxx1112basic_stringIcSt11char_traitsIcESaIcEEESC_iiiiiRKN8nlohmann10basic_jsonISt3mapSt6vectorSA_blmdSaNSD_14adl_serializerEEE
FNDA:1,_ZN14social_network10ClientPoolINS_12ThriftClientINS_17UserServiceClientEEEEC2ERKNSt7__cxx1112basic_stringIcSt11char_traitsIcESaIcEEESC_iiiiiRKN8nlohmann10basic_jsonISt3mapSt6vectorSA_blmdSaNSD_14adl_serializerEEE
FNDA:1,_ZN14social_network10ClientPoolINS_12ThriftClientINS_17TextServiceClientEEEEC2ERKNSt7__cxx1112basic_stringIcSt11char_traitsIcESaIcEEESC_iiiiiRKN8nlohmann10basic_jsonISt3mapSt6vectorSA_blmdSaNSD_14adl_serializerEEE
FNDA:1,_ZN14social_network10ClientPoolINS_12ThriftClientINS_25UserTimelineServiceClientEEEEC2ERKNSt7__cxx1112basic_stringIcSt11char_traitsIcESaIcEEESC_iiiiiRKN8nlohmann10basic_jsonISt3mapSt6vectorSA_blmdSaNSD_14adl_serializerEEE
FNDA:1,_ZN14social_network10ClientPoolINS_12ThriftClientINS_24PostStorageServiceClientEEEEC2ERKNSt7__cxx1112basic_stringIcSt11char_traitsIcESaIcEEESC_iiiiiRKN8nlohmann10basic_jsonISt3mapSt6vectorSA_blmdSaNSD_14adl_serializerEEE
FNDA:0,_ZN14social_network10ClientPoolINS_12ThriftClientINS_21UniqueIdServiceClientEEEED2Ev
FNDA:0,_ZN14social_network10ClientPoolINS_12ThriftClientINS_25HomeTimelineServiceClientEEEED2Ev
FNDA:0,_ZN14social_network10ClientPoolINS_12ThriftClientINS_18MediaServiceClientEEEED2Ev
FNDA:0,_ZN14social_network10ClientPoolINS_12ThriftClientINS_17UserServiceClientEEEED2Ev
FNDA:0,_ZN14social_network10ClientPoolINS_12ThriftClientINS_17TextServiceClientEEEED2Ev
FNDA:0,_ZN14social_network10ClientPoolINS_12ThriftClientINS_25UserTimelineServiceClientEEEED2Ev
FNDA:0,_ZN14social_network10ClientPoolINS_12ThriftClientINS_24PostStorageServiceClientEEEED2Ev
FNDA:200,_ZN14social_network10ClientPoolINS_12ThriftClientINS_25HomeTimelineServiceClientEEEE3PopEv
FNDA:200,_ZN14social_network10ClientPoolINS_12ThriftClientINS_25UserTimelineServiceClientEEEE3PopEv
FNDA:200,_ZN14social_network10ClientPoolINS_12ThriftClientINS_24PostStorageServiceClientEEEE3PopEv
FNDA:200,_ZN14social_network10ClientPoolINS_12ThriftClientINS_21UniqueIdServiceClientEEEE3PopEv
FNDA:200,_ZN14social_network10ClientPoolINS_12ThriftClientINS_18MediaServiceClientEEEE3PopEv
FNDA:200,_ZN14social_network10ClientPoolINS_12ThriftClientINS_17TextServiceClientEEEE3PopEv
FNDA:200,_ZN14social_network10ClientPoolINS_12ThriftClientINS_17UserServiceClientEEEE3PopEv
FNDA:0,_ZZN14social_network10ClientPoolINS_12ThriftClientINS_25HomeTimelineServiceClientEEEE3PopEvENKUlvE_clEv
FNDA:0,_ZZN14social_network10ClientPoolINS_12ThriftClientINS_25UserTimelineServiceClientEEEE3PopEvENKUlvE_clEv
FNDA:0,_ZZN14social_network10ClientPoolINS_12ThriftClientINS_24PostStorageServiceClientEEEE3PopEvENKUlvE_clEv
FNDA:0,_ZZN14social_network10ClientPoolINS_12ThriftClientINS_21UniqueIdServiceClientEEEE3PopEvENKUlvE_clEv
FNDA:0,_ZZN14social_network10ClientPoolINS_12ThriftClientINS_18MediaServiceClientEEEE3PopEvENKUlvE_clEv
FNDA:0,_ZZN14social_network10ClientPoolINS_12ThriftClientINS_17TextServiceClientEEEE3PopEvENKUlvE_clEv
FNDA:0,_ZZN14social_network10ClientPoolINS_12ThriftClientINS_17UserServiceClientEEEE3PopEvENKUlvE_clEv
FNDA:134,_ZN14social_network10ClientPoolINS_12ThriftClientINS_25HomeTimelineServiceClientEEEE4PushEPS3_
FNDA:134,_ZN14social_network10ClientPoolINS_12ThriftClientINS_25UserTimelineServiceClientEEEE4PushEPS3_
FNDA:134,_ZN14social_network10ClientPoolINS_12ThriftClientINS_24PostStorageServiceClientEEEE4PushEPS3_
FNDA:134,_ZN14social_network10ClientPoolINS_12ThriftClientINS_21UniqueIdServiceClientEEEE4PushEPS3_
FNDA:134,_ZN14social_network10ClientPoolINS_12ThriftClientINS_18MediaServiceClientEEEE4PushEPS3_
FNDA:134,_ZN14social_network10ClientPoolINS_12ThriftClientINS_17TextServiceClientEEEE4PushEPS3_
FNDA:134,_ZN14social_network10ClientPoolINS_12ThriftClientINS_17UserServiceClientEEEE4PushEPS3_
FNDA:66,_ZN14social_network10ClientPoolINS_12ThriftClientINS_25HomeTimelineServiceClientEEEE6RemoveEPS3_
FNDA:66,_ZN14social_network10ClientPoolINS_12ThriftClientINS_25UserTimelineServiceClientEEEE6RemoveEPS3_
FNDA:66,_ZN14social_network10ClientPoolINS_12ThriftClientINS_24PostStorageServiceClientEEEE6RemoveEPS3_
FNDA:66,_ZN14social_network10ClientPoolINS_12ThriftClientINS_21UniqueIdServiceClientEEEE6RemoveEPS3_
FNDA:66,_ZN14social_network10ClientPoolINS_12ThriftClientINS_18MediaServiceClientEEEE6RemoveEPS3_
FNDA:66,_ZN14social_network10ClientPoolINS_12ThriftClientINS_17TextServiceClientEEEE6RemoveEPS3_
FNDA:66,_ZN14social_network10ClientPoolINS_12ThriftClientINS_17UserServiceClientEEEE6RemoveEPS3_
FNDA:200,_ZN14social_network10ClientPoolINS_12ThriftClientINS_25HomeTimelineServiceClientEEEE9KeepaliveEPS3_
FNDA:200,_ZN14social_network10ClientPoolINS_12ThriftClientINS_25UserTimelineServiceClientEEEE9KeepaliveEPS3_
FNDA:200,_ZN14social_network10ClientPoolINS_12ThriftClientINS_24PostStorageServiceClientEEEE9KeepaliveEPS3_
FNDA:200,_ZN14social_network10ClientPoolINS_12ThriftClientINS_21UniqueIdServiceClientEEEE9KeepaliveEPS3_
FNDA:200,_ZN14social_network10ClientPoolINS_12ThriftClientINS_18MediaServiceClientEEEE9KeepaliveEPS3_
FNDA:200,_ZN14social_network10ClientPoolINS_12ThriftClientINS_17TextServiceClientEEEE9KeepaliveEPS3_
FNDA:200,_ZN14social_network10ClientPoolINS_12ThriftClientINS_17UserServiceClientEEEE9KeepaliveEPS3_
FNF:49
FNH:35
DA:52,7
DA:55,7
DA:56,7
DA:57,7
DA:58,7
DA:59,7
DA:60,7
DA:61,7
DA:62,7
DA:63,7
DA:65,7
DA:66,0
DA:67,0
DA:69,7
DA:70,7
DA:73,0
DA:74,0
DA:75,0
DA:76,0
DA:78,0
DA:81,1400
DA:82,1400
DA:84,2800
DA:85,1400
DA:88,0
DA:89,0
DA:91,0
DA:92,0
DA:93,0
DA:94,0
DA:95,0
DA:96,0
DA:99,1400
DA:100,931
DA:101,931
DA:103,469
DA:104,469
DA:106,1400
DA:110,1400
DA:112,1400
DA:113,0
DA:114,0
DA:115,0
DA:116,0
DA:119,1400
DA:123,938
DA:124,1876
DA:125,938
DA:126,938
DA:127,938
DA:128,938
DA:131,462
DA:133,462
DA:134,924
DA:135,462
DA:136,462
DA:137,462
DA:138,462
DA:141,1400
DA:142,2800
DA:143,4200
DA:144,1400
DA:145,462
DA:147,938
DA:149,1400
LF:65
LH:46
end_of_record
SF:/social-network-microservices/src/ComposePostService/ComposePostHandler.h
FN:40,_ZN14social_network18ComposePostHandlerD0Ev
FN:40,_ZN14social_network18ComposePostHandlerD2Ev
FN:89,_ZN14social_network18ComposePostHandlerC2EPNS_10ClientPoolINS_12ThriftClientINS_24PostStorageServiceClientEEEEEPNS1_INS2_INS_25UserTimelineServiceClientEEEEEPNS1_INS2_INS_17UserServiceClientEEEEEPNS1_INS2_INS_21UniqueIdServiceClientEEEEEPNS1_INS2_INS_18MediaServiceClientEEEEEPNS1_INS2_INS_17TextServiceClientEEEEEPNS1_INS2_INS_25HomeTimelineServiceClientEEEEE
FN:110,_ZN14social_network18ComposePostHandler21_ComposeCreaterHelperEllRKNSt7__cxx1112basic_stringIcSt11char_traitsIcESaIcEEERKSt3mapIS6_S6_St4lessIS6_ESaISt4pairIS7_S6_EEE
FN:147,_ZN14social_network18ComposePostHandler18_ComposeTextHelperElRKNSt7__cxx1112basic_stringIcSt11char_traitsIcESaIcEEERKSt3mapIS6_S6_St4lessIS6_ESaISt4pairIS7_S6_EEE
FN:184,_ZN14social_network18ComposePostHandler19_ComposeMediaHelperElRKSt6vectorINSt7__cxx1112basic_stringIcSt11char_traitsIcESaIcEEESaIS7_EERKS1_IlSaIlEERKSt3mapIS7_S7_St4lessIS7_ESaISt4pairIKS7_S7_EEE
FN:223,_ZN14social_network18ComposePostHandler22_ComposeUniqueIdHelperElNS_8PostType4typeERKSt3mapINSt7__cxx1112basic_stringIcSt11char_traitsIcESaIcEEES9_St4lessIS9_ESaISt4pairIKS9_S9_EEE
FN:260,_ZN14social_network18ComposePostHandler17_UploadPostHelperElRKNS_4PostERKSt3mapINSt7__cxx1112basic_stringIcSt11char_traitsIcESaIcEEESA_St4lessISA_ESaISt4pairIKSA_SA_EEE
FN:298,_ZN14social_network18ComposePostHandler25_UploadUserTimelineHelperEllllRKSt3mapINSt7__cxx1112basic_stringIcSt11char_traitsIcESaIcEEES7_St4lessIS7_ESaISt4pairIKS7_S7_EEE
FN:331,_ZN14social_network18ComposePostHandler25_UploadHomeTimelineHelperEllllRKSt6vectorIlSaIlEERKSt3mapINSt7__cxx1112basic_stringIcSt11char_traitsIcESaIcEEESC_St4lessISC_ESaISt4pairIKSC_SC_EEE
FN:366,_ZN14social_network18ComposePostHandler11ComposePostElRKNSt7__cxx1112basic_stringIcSt11char_traitsIcESaIcEEElS8_RKSt6vectorIlSaIlEERKS9_IS6_SaIS6_EENS_8PostType4typeERKSt3mapIS6_S6_St4lessIS6_ESaISt4pairIS7_S6_EEE
FNDA:0,_ZN14social_network18ComposePostHandlerD0Ev
FNDA:0,_ZN14social_network18ComposePostHandlerD2Ev
FNDA:1,_ZN14social_network18ComposePostHandlerC2EPNS_10ClientPoolINS_12ThriftClientINS_24PostStorageServiceClientEEEEEPNS1_INS2_INS_25UserTimelineServiceClientEEEEEPNS1_INS2_INS_17UserServiceClientEEEEEPNS1_INS2_INS_21UniqueIdServiceClientEEEEEPNS1_INS2_INS_18MediaServiceClientEEEEEPNS1_INS2_INS_17TextServiceClientEEEEEPNS1_INS2_INS_25HomeTimelineServiceClientEEEEE
FNDA:200,_ZN14social_network18ComposePostHandler21_ComposeCreaterHelperEllRKNSt7__cxx1112basic_stringIcSt11char_traitsIcESaIcEEERKSt3mapIS6_S6_St4lessIS6_ESaISt4pairIS7_S6_EEE
FNDA:200,_ZN14social_network18ComposePostHandler18_ComposeTextHelperElRKNSt7__cxx1112basic_stringIcSt11char_traitsIcESaIcEEERKSt3mapIS6_S6_St4lessIS6_ESaISt4pairIS7_S6_EEE
FNDA:200,_ZN14social_network18ComposePostHandler19_ComposeMediaHelperElRKSt6vectorINSt7__cxx1112basic_stringIcSt11char_traitsIcESaIcEEESaIS7_EERKS1_IlSaIlEERKSt3mapIS7_S7_St4lessIS7_ESaISt4pairIKS7_S7_EEE
FNDA:200,_ZN14social_network18ComposePostHandler22_ComposeUniqueIdHelperElNS_8PostType4typeERKSt3mapINSt7__cxx1112basic_stringIcSt11char_traitsIcESaIcEEES9_St4lessIS9_ESaISt4pairIKS9_S9_EEE
FNDA:200,_ZN14social_network18ComposePostHandler17_UploadPostHelperElRKNS_4PostERKSt3mapINSt7__cxx1112basic_stringIcSt11char_traitsIcESaIcEEESA_St4lessISA_ESaISt4pairIKSA_SA_EEE
FNDA:200,_ZN14social_network18ComposePostHandler25_UploadUserTimelineHelperEllllRKSt3mapINSt7__cxx1112basic_stringIcSt11char_traitsIcESaIcEEES7_St4lessIS7_ESaISt4pairIKS7_S7_EEE
FNDA:200,_ZN14social_network18ComposePostHandler25_UploadHomeTimelineHelperEllllRKSt6vectorIlSaIlEERKSt3mapINSt7__cxx1112basic_stringIcSt11char_traitsIcESaIcEEESC_St4lessISC_ESaISt4pairIKSC_SC_EEE
FNDA:200,_ZN14social_network18ComposePostHandler11ComposePostElRKNSt7__cxx1112basic_stringIcSt11char_traitsIcESaIcEEElS8_RKSt6vectorIlSaIlEERKS9_IS6_SaIS6_EENS_8PostType4typeERKSt3mapIS6_S6_St4lessIS6_ESaISt4pairIS7_S6_EEE
FNF:11
FNH:9
DA:40,0
DA:89,1
DA:100,1
DA:101,1
DA:102,1
DA:103,1
DA:104,1
DA:105,1
DA:106,1
DA:107,1
DA:108,1
DA:110,200
DA:113,400
DA:114,400
DA:115,400
DA:116,800
DA:117,400
DA:118,400
DA:119,200
DA:121,200
DA:122,200
DA:123,0
DA:124,0
DA:125,0
DA:126,0
DA:127,0
DA:128,0
DA:131,200
DA:132,200
DA:135,200
DA:136,0
DA:137,0
DA:138,0
DA:139,0
DA:140,0
DA:142,200
DA:143,200
DA:144,400
DA:147,200
DA:150,400
DA:151,400
DA:152,400
DA:153,800
DA:154,400
DA:155,400
DA:156,200
DA:158,200
DA:159,200
DA:160,0
DA:161,0
DA:162,0
DA:163,0
DA:165,0
DA:166,0
DA:169,200
DA:170,200
DA:172,200
DA:173,0
DA:174,0
DA:175,0
DA:176,0
DA:177,0
DA:179,200
DA:180,200
DA:181,400
DA:184,200
DA:188,400
DA:189,400
DA:190,400
DA:191,800
DA:192,400
DA:193,400
DA:194,200
DA:196,200
DA:197,200
DA:198,0
DA:199,0
DA:200,0
DA:201,0
DA:203,0
DA:204,0
DA:207,200
DA:208,200
DA:211,200
DA:212,0
DA:213,0
DA:214,0
DA:215,0
DA:216,0
DA:218,200
DA:219,200
DA:220,400
DA:223,200
DA:226,400
DA:227,400
DA:228,400
DA:229,800
DA:230,400
DA:231,400
DA:232,200
DA:234,200
DA:235,200
DA:236,0
DA:237,0
DA:238,0
DA:239,0
DA:240,0
DA:241,0
DA:244,200
DA:248,200
DA:249,0
DA:250,0
DA:251,0
DA:252,0
DA:253,0
DA:255,200
DA:256,200
DA:257,400
DA:260,200
DA:264,400
DA:266,400
DA:267,400
DA:268,400
DA:269,800
DA:270,400
DA:271,400
DA:272,200
DA:274,200
DA:275,200
DA:276,0
DA:277,0
DA:278,0
DA:279,0
DA:281,0
DA:283,200
DA:285,200
DA:286,400
DA:287,0
DA:288,0
DA:289,0
DA:290,0
DA:292,200
DA:294,200
DA:295,400
DA:296,200
DA:298,200
DA:301,400
DA:302,400
DA:303,400
DA:304,800
DA:305,400
DA:306,400
DA:307,200
DA:309,200
DA:310,200
DA:311,0
DA:312,0
DA:313,0
DA:314,0
DA:316,0
DA:318,200
DA:321,200
DA:322,0
DA:323,0
DA:324,0
DA:326,200
DA:328,200
DA:329,200
DA:331,200
DA:335,400
DA:336,400
DA:337,400
DA:338,800
DA:339,400
DA:340,400
DA:341,200
DA:343,200
DA:344,200
DA:345,0
DA:346,0
DA:347,0
DA:348,0
DA:350,0
DA:352,200
DA:355,200
DA:356,0
DA:357,0
DA:358,0
DA:359,0
DA:361,200
DA:363,200
DA:364,200
DA:366,200
DA:372,400
DA:374,400
DA:375,400
DA:376,400
DA:377,800
DA:378,400
DA:379,400
DA:380,200
DA:384,400
DA:387,400
DA:390,400
DA:393,400
DA:395,400
DA:397,400
DA:398,200
DA:399,200
DA:401,200
DA:402,400
DA:404,200
DA:405,400
DA:407,200
DA:408,400
DA:410,400
DA:411,200
DA:412,200
DA:413,200
DA:414,800
DA:415,400
DA:416,400
DA:418,200
DA:419,200
DA:421,400
DA:422,200
DA:423,0
DA:432,400
DA:435,400
DA:439,400
DA:441,200
DA:442,400
DA:444,200
DA:445,400
DA:447,200
DA:448,400
DA:450,200
DA:451,400
DA:452,200
LF:239
LH:167
end_of_record
SF:/social-network-microservices/src/ComposePostService/ComposePostService.cpp
FN:19,_Z13sigintHandleri
FN:21,_Z14handle_sigusr1i
FN:25,main
FN:119,_Z41__static_initialization_and_destruction_0ii
FN:119,_GLOBAL__sub_I__ZN14social_network11init_loggerEv
FNDA:0,_Z13sigintHandleri
FNDA:1,_Z14handle_sigusr1i
FNDA:1,main
FNDA:1,_GLOBAL__sub_I__ZN14social_network11init_loggerEv
FNDA:1,_Z41__static_initialization_and_destruction_0ii
FNF:5
FNH:4
DA:19,0
DA:21,1
DA:22,1
DA:23,0
DA:25,1
DA:26,1
DA:27,1
DA:28,1
DA:29,1
DA:31,1
DA:32,1
DA:33,0
DA:36,1
DA:38,1
DA:39,1
DA:40,1
DA:41,1
DA:43,1
DA:45,1
DA:46,1
DA:47,1
DA:49,1
DA:51,1
DA:53,1
DA:54,1
DA:55,1
DA:56,1
DA:57,1
DA:59,1
DA:60,1
DA:61,1
DA:62,1
DA:63,1
DA:65,1
DA:66,1
DA:67,1
DA:68,1
DA:69,1
DA:71,1
DA:72,1
DA:73,1
DA:75,1
DA:77,1
DA:79,1
DA:80,1
DA:81,1
DA:82,1
DA:83,1
DA:87,1
DA:90,1
DA:93,1
DA:96,1
DA:99,1
DA:102,1
DA:105,1
DA:107,1
DA:109,2
DA:110,2
DA:115,2
DA:116,6
DA:117,2
DA:118,1
DA:119,3
LF:63
LH:60
end_of_record
SF:/social-network-microservices/src/GenericClient.h
FN:9,_ZN14social_network13GenericClientC2Ev
FN:11,_ZN14social_network13GenericClientD0Ev
FN:11,_ZN14social_network13GenericClientD2Ev
FNDA:468,_ZN14social_network13GenericClientC2Ev
FNDA:0,_ZN14social_network13GenericClientD0Ev
FNDA:462,_ZN14social_network13GenericClientD2Ev
FNF:3
FNH:2
DA:9,468
DA:11,462
LF:2
LH:2
end_of_record
SF:/social-network-microservices/src/ThriftClient.h
FN:73,_ZN14social_network12ThriftClientINS_24PostStorageServiceClientEEC2ERKNSt7__cxx1112basic_stringIcSt11char_traitsIcESaIcEEEiiRKN8nlohmann10basic_jsonISt3mapSt6vectorS8_blmdSaNSB_14adl_serializerEEE
FN:73,_ZN14social_network12ThriftClientINS_25UserTimelineServiceClientEEC2ERKNSt7__cxx1112basic_stringIcSt11char_traitsIcESaIcEEEiiRKN8nlohmann10basic_jsonISt3mapSt6vectorS8_blmdSaNSB_14adl_serializerEEE
FN:73,_ZN14social_network12ThriftClientINS_25HomeTimelineServiceClientEEC2ERKNSt7__cxx1112basic_stringIcSt11char_traitsIcESaIcEEEiiRKN8nlohmann10basic_jsonISt3mapSt6vectorS8_blmdSaNSB_14adl_serializerEEE
FN:73,_ZN14social_network12ThriftClientINS_18MediaServiceClientEEC2ERKNSt7__cxx1112basic_stringIcSt11char_traitsIcESaIcEEEiiRKN8nlohmann10basic_jsonISt3mapSt6vectorS8_blmdSaNSB_14adl_serializerEEE
FN:73,_ZN14social_network12ThriftClientINS_17TextServiceClientEEC2ERKNSt7__cxx1112basic_stringIcSt11char_traitsIcESaIcEEEiiRKN8nlohmann10basic_jsonISt3mapSt6vectorS8_blmdSaNSB_14adl_serializerEEE
FN:73,_ZN14social_network12ThriftClientINS_17UserServiceClientEEC2ERKNSt7__cxx1112basic_stringIcSt11char_traitsIcESaIcEEEiiRKN8nlohmann10basic_jsonISt3mapSt6vectorS8_blmdSaNSB_14adl_serializerEEE
FN:73,_ZN14social_network12ThriftClientINS_21UniqueIdServiceClientEEC2ERKNSt7__cxx1112basic_stringIcSt11char_traitsIcESaIcEEEiiRKN8nlohmann10basic_jsonISt3mapSt6vectorS8_blmdSaNSB_14adl_serializerEEE
FN:111,_ZN14social_network12ThriftClientINS_21UniqueIdServiceClientEED0Ev
FN:111,_ZN14social_network12ThriftClientINS_17UserServiceClientEED2Ev
FN:111,_ZN14social_network12ThriftClientINS_25HomeTimelineServiceClientEED2Ev
FN:111,_ZN14social_network12ThriftClientINS_21UniqueIdServiceClientEED2Ev
FN:111,_ZN14social_network12ThriftClientINS_18MediaServiceClientEED0Ev
FN:111,_ZN14social_network12ThriftClientINS_25HomeTimelineServiceClientEED0Ev
FN:111,_ZN14social_network12ThriftClientINS_17TextServiceClientEED0Ev
FN:111,_ZN14social_network12ThriftClientINS_25UserTimelineServiceClientEED2Ev
FN:111,_ZN14social_network12ThriftClientINS_24PostStorageServiceClientEED0Ev
FN:111,_ZN14social_network12ThriftClientINS_17UserServiceClientEED0Ev
FN:111,_ZN14social_network12ThriftClientINS_25UserTimelineServiceClientEED0Ev
FN:111,_ZN14social_network12ThriftClientINS_18MediaServiceClientEED2Ev
FN:111,_ZN14social_network12ThriftClientINS_24PostStorageServiceClientEED2Ev
FN:111,_ZN14social_network12ThriftClientINS_17TextServiceClientEED2Ev
FN:117,_ZNK14social_network12ThriftClientINS_25HomeTimelineServiceClientEE9GetClientEv
FN:117,_ZNK14social_network12ThriftClientINS_24PostStorageServiceClientEE9GetClientEv
FN:117,_ZNK14social_network12ThriftClientINS_17TextServiceClientEE9GetClientEv
FN:117,_ZNK14social_network12ThriftClientINS_25UserTimelineServiceClientEE9GetClientEv
FN:117,_ZNK14social_network12ThriftClientINS_21UniqueIdServiceClientEE9GetClientEv
FN:117,_ZNK14social_network12ThriftClientINS_17UserServiceClientEE9GetClientEv
FN:117,_ZNK14social_network12ThriftClientINS_18MediaServiceClientEE9GetClientEv
FN:122,_ZN14social_network12ThriftClientINS_17TextServiceClientEE11IsConnectedEv
FN:122,_ZN14social_network12ThriftClientINS_21UniqueIdServiceClientEE11IsConnectedEv
FN:122,_ZN14social_network12ThriftClientINS_25HomeTimelineServiceClientEE11IsConnectedEv
FN:122,_ZN14social_network12ThriftClientINS_25UserTimelineServiceClientEE11IsConnectedEv
FN:122,_ZN14social_network12ThriftClientINS_17UserServiceClientEE11IsConnectedEv
FN:122,_ZN14social_network12ThriftClientINS_24PostStorageServiceClientEE11IsConnectedEv
FN:122,_ZN14social_network12ThriftClientINS_18MediaServiceClientEE11IsConnectedEv
FN:127,_ZN14social_network12ThriftClientINS_25HomeTimelineServiceClientEE7ConnectEv
FN:127,_ZN14social_network12ThriftClientINS_24PostStorageServiceClientEE7ConnectEv
FN:127,_ZN14social_network12ThriftClientINS_18MediaServiceClientEE7ConnectEv
FN:127,_ZN14social_network12ThriftClientINS_25UserTimelineServiceClientEE7ConnectEv
FN:127,_ZN14social_network12ThriftClientINS_21UniqueIdServiceClientEE7ConnectEv
FN:127,_ZN14social_network12ThriftClientINS_17UserServiceClientEE7ConnectEv
FN:127,_ZN14social_network12ThriftClientINS_17TextServiceClientEE7ConnectEv
FN:138,_ZN14social_network12ThriftClientINS_17UserServiceClientEE10DisconnectEv
FN:138,_ZN14social_network12ThriftClientINS_18MediaServiceClientEE10DisconnectEv
FN:138,_ZN14social_network12ThriftClientINS_24PostStorageServiceClientEE10DisconnectEv
FN:138,_ZN14social_network12ThriftClientINS_25HomeTimelineServiceClientEE10DisconnectEv
FN:138,_ZN14social_network12ThriftClientINS_21UniqueIdServiceClientEE10DisconnectEv
FN:138,_ZN14social_network12ThriftClientINS_17TextServiceClientEE10DisconnectEv
FN:138,_ZN14social_network12ThriftClientINS_25UserTimelineServiceClientEE10DisconnectEv
FNDA:67,_ZN14social_network12ThriftClientINS_25HomeTimelineServiceClientEEC2ERKNSt7__cxx1112basic_stringIcSt11char_traitsIcESaIcEEEiiRKN8nlohmann10basic_jsonISt3mapSt6vectorS8_blmdSaNSB_14adl_serializerEEE
FNDA:67,_ZN14social_network12ThriftClientINS_25UserTimelineServiceClientEEC2ERKNSt7__cxx1112basic_stringIcSt11char_traitsIcESaIcEEEiiRKN8nlohmann10basic_jsonISt3mapSt6vectorS8_blmdSaNSB_14adl_serializerEEE
FNDA:67,_ZN14social_network12ThriftClientINS_24PostStorageServiceClientEEC2ERKNSt7__cxx1112basic_stringIcSt11char_traitsIcESaIcEEEiiRKN8nlohmann10basic_jsonISt3mapSt6vectorS8_blmdSaNSB_14adl_serializerEEE
FNDA:67,_ZN14social_network12ThriftClientINS_21UniqueIdServiceClientEEC2ERKNSt7__cxx1112basic_stringIcSt11char_traitsIcESaIcEEEiiRKN8nlohmann10basic_jsonISt3mapSt6vectorS8_blmdSaNSB_14adl_serializerEEE
FNDA:67,_ZN14social_network12ThriftClientINS_18MediaServiceClientEEC2ERKNSt7__cxx1112basic_stringIcSt11char_traitsIcESaIcEEEiiRKN8nlohmann10basic_jsonISt3mapSt6vectorS8_blmdSaNSB_14adl_serializerEEE
FNDA:67,_ZN14social_network12ThriftClientINS_17TextServiceClientEEC2ERKNSt7__cxx1112basic_stringIcSt11char_traitsIcESaIcEEEiiRKN8nlohmann10basic_jsonISt3mapSt6vectorS8_blmdSaNSB_14adl_serializerEEE
FNDA:67,_ZN14social_network12ThriftClientINS_17UserServiceClientEEC2ERKNSt7__cxx1112basic_stringIcSt11char_traitsIcESaIcEEEiiRKN8nlohmann10basic_jsonISt3mapSt6vectorS8_blmdSaNSB_14adl_serializerEEE
FNDA:66,_ZN14social_network12ThriftClientINS_25HomeTimelineServiceClientEED0Ev
FNDA:66,_ZN14social_network12ThriftClientINS_25HomeTimelineServiceClientEED2Ev
FNDA:66,_ZN14social_network12ThriftClientINS_25UserTimelineServiceClientEED0Ev
FNDA:66,_ZN14social_network12ThriftClientINS_25UserTimelineServiceClientEED2Ev
FNDA:66,_ZN14social_network12ThriftClientINS_24PostStorageServiceClientEED0Ev
FNDA:66,_ZN14social_network12ThriftClientINS_24PostStorageServiceClientEED2Ev
FNDA:66,_ZN14social_network12ThriftClientINS_21UniqueIdServiceClientEED0Ev
FNDA:66,_ZN14social_network12ThriftClientINS_21UniqueIdServiceClientEED2Ev
FNDA:66,_ZN14social_network12ThriftClientINS_18MediaServiceClientEED0Ev
FNDA:66,_ZN14social_network12ThriftClientINS_18MediaServiceClientEED2Ev
FNDA:66,_ZN14social_network12ThriftClientINS_17TextServiceClientEED0Ev
FNDA:66,_ZN14social_network12ThriftClientINS_17TextServiceClientEED2Ev
FNDA:66,_ZN14social_network12ThriftClientINS_17UserServiceClientEED0Ev
FNDA:66,_ZN14social_network12ThriftClientINS_17UserServiceClientEED2Ev
FNDA:200,_ZNK14social_network12ThriftClientINS_25HomeTimelineServiceClientEE9GetClientEv
FNDA:200,_ZNK14social_network12ThriftClientINS_25UserTimelineServiceClientEE9GetClientEv
FNDA:200,_ZNK14social_network12ThriftClientINS_24PostStorageServiceClientEE9GetClientEv
FNDA:200,_ZNK14social_network12ThriftClientINS_21UniqueIdServiceClientEE9GetClientEv
FNDA:200,_ZNK14social_network12ThriftClientINS_18MediaServiceClientEE9GetClientEv
FNDA:200,_ZNK14social_network12ThriftClientINS_17TextServiceClientEE9GetClientEv
FNDA:200,_ZNK14social_network12ThriftClientINS_17UserServiceClientEE9GetClientEv
FNDA:266,_ZN14social_network12ThriftClientINS_25HomeTimelineServiceClientEE11IsConnectedEv
FNDA:266,_ZN14social_network12ThriftClientINS_25UserTimelineServiceClientEE11IsConnectedEv
FNDA:266,_ZN14social_network12ThriftClientINS_24PostStorageServiceClientEE11IsConnectedEv
FNDA:266,_ZN14social_network12ThriftClientINS_21UniqueIdServiceClientEE11IsConnectedEv
FNDA:266,_ZN14social_network12ThriftClientINS_18MediaServiceClientEE11IsConnectedEv
FNDA:266,_ZN14social_network12ThriftClientINS_17TextServiceClientEE11IsConnectedEv
FNDA:266,_ZN14social_network12ThriftClientINS_17UserServiceClientEE11IsConnectedEv
FNDA:200,_ZN14social_network12ThriftClientINS_25HomeTimelineServiceClientEE7ConnectEv
FNDA:200,_ZN14social_network12ThriftClientINS_25UserTimelineServiceClientEE7ConnectEv
FNDA:200,_ZN14social_network12ThriftClientINS_24PostStorageServiceClientEE7ConnectEv
FNDA:200,_ZN14social_network12ThriftClientINS_21UniqueIdServiceClientEE7ConnectEv
FNDA:200,_ZN14social_network12ThriftClientINS_18MediaServiceClientEE7ConnectEv
FNDA:200,_ZN14social_network12ThriftClientINS_17TextServiceClientEE7ConnectEv
FNDA:200,_ZN14social_network12ThriftClientINS_17UserServiceClientEE7ConnectEv
FNDA:66,_ZN14social_network12ThriftClientINS_25HomeTimelineServiceClientEE10DisconnectEv
FNDA:66,_ZN14social_network12ThriftClientINS_25UserTimelineServiceClientEE10DisconnectEv
FNDA:66,_ZN14social_network12ThriftClientINS_24PostStorageServiceClientEE10DisconnectEv
FNDA:66,_ZN14social_network12ThriftClientINS_21UniqueIdServiceClientEE10DisconnectEv
FNDA:66,_ZN14social_network12ThriftClientINS_18MediaServiceClientEE10DisconnectEv
FNDA:66,_ZN14social_network12ThriftClientINS_17TextServiceClientEE10DisconnectEv
FNDA:66,_ZN14social_network12ThriftClientINS_17UserServiceClientEE10DisconnectEv
FNF:49
FNH:49
DA:73,469
DA:74,469
DA:75,469
DA:76,469
DA:77,469
DA:79,469
DA:80,0
DA:81,0
DA:83,0
DA:84,0
DA:85,0
DA:86,0
DA:95,0
DA:96,0
DA:98,469
DA:100,469
DA:101,469
DA:102,469
DA:103,469
DA:104,1407
DA:105,938
DA:106,938
DA:107,469
DA:108,469
DA:111,924
DA:112,462
DA:113,462
DA:114,1386
DA:117,1400
DA:118,1400
DA:122,1862
DA:123,1862
DA:127,1400
DA:128,1400
DA:130,469
DA:131,0
DA:132,0
DA:135,1400
DA:138,462
DA:139,462
DA:141,462
DA:142,0
DA:143,0
DA:146,462
LF:44
LH:32
end_of_record
SF:/social-network-microservices/src/logger.h
FN:17,_ZN14social_network11init_loggerEv
FNDA:1,_ZN14social_network11init_loggerEv
FNF:1
FNH:1
DA:17,1
DA:19,1
DA:20,1
DA:22,1
DA:23,1
DA:24,2
DA:25,2
DA:26,1
DA:27,1
LF:9
LH:9
end_of_record
SF:/social-network-microservices/src/tracing.h
FN:20,_ZN14social_network13TextMapReaderD0Ev
FN:20,_ZN14social_network13TextMapReaderD2Ev
FN:22,_ZN14social_network13TextMapReaderC2ERKSt3mapINSt7__cxx1112basic_stringIcSt11char_traitsIcESaIcEEES7_St4lessIS7_ESaISt4pairIKS7_S7_EEE
FN:25,_ZNK14social_network13TextMapReader10ForeachKeyESt8functionIFN11opentracing2v28expectedIvSt10error_codeEENS3_11string_viewES7_EE
FN:39,_ZN14social_network13TextMapWriterD0Ev
FN:39,_ZN14social_network13TextMapWriterD2Ev
FN:41,_ZN14social_network13TextMapWriterC2ERSt3mapINSt7__cxx1112basic_stringIcSt11char_traitsIcESaIcEEES7_St4lessIS7_ESaISt4pairIKS7_S7_EEE
FN:44,_ZNK14social_network13TextMapWriter3SetEN11opentracing2v211string_viewES3_
FN:53,_ZN14social_network11SetUpTracerERKNSt7__cxx1112basic_stringIcSt11char_traitsIcESaIcEEES7_
FNDA:0,_ZN14social_network13TextMapReaderD0Ev
FNDA:1599,_ZN14social_network13TextMapReaderD2Ev
FNDA:1600,_ZN14social_network13TextMapReaderC2ERKSt3mapINSt7__cxx1112basic_stringIcSt11char_traitsIcESaIcEEES7_St4lessIS7_ESaISt4pairIKS7_S7_EEE
FNDA:1600,_ZNK14social_network13TextMapReader10ForeachKeyESt8functionIFN11opentracing2v28expectedIvSt10error_codeEENS3_11string_viewES7_EE
FNDA:0,_ZN14social_network13TextMapWriterD0Ev
FNDA:1598,_ZN14social_network13TextMapWriterD2Ev
FNDA:1595,_ZN14social_network13TextMapWriterC2ERSt3mapINSt7__cxx1112basic_stringIcSt11char_traitsIcESaIcEEES7_St4lessIS7_ESaISt4pairIKS7_S7_EEE
FNDA:1595,_ZNK14social_network13TextMapWriter3SetEN11opentracing2v211string_viewES3_
FNDA:1,_ZN14social_network11SetUpTracerERKNSt7__cxx1112basic_stringIcSt11char_traitsIcESaIcEEES7_
FNF:9
FNH:7
DA:20,1599
DA:22,1600
DA:23,1600
DA:25,1600
DA:28,3198
DA:29,3198
DA:30,1598
DA:32,1599
DA:39,1598
DA:41,1595
DA:42,1595
DA:44,1595
DA:45,1595
DA:46,1593
DA:53,1
DA:56,2
DA:63,2
DA:65,1
DA:66,3
DA:70,2
DA:71,1
DA:73,1
DA:75,0
DA:77,0
DA:78,0
DA:83,1
LF:26
LH:23
end_of_record
SF:/social-network-microservices/src/utils.h
FN:14,_ZN14social_network16load_config_fileERKNSt7__cxx1112basic_stringIcSt11char_traitsIcESaIcEEEPN8nlohmann10basic_jsonISt3mapSt6vectorS5_blmdSaNS8_14adl_serializerEEE
FNDA:1,_ZN14social_network16load_config_fileERKNSt7__cxx1112basic_stringIcSt11char_traitsIcESaIcEEEPN8nlohmann10basic_jsonISt3mapSt6vectorS5_blmdSaNS8_14adl_serializerEEE
FNF:1
FNH:1
DA:14,1
DA:15,2
DA:16,1
DA:17,1
DA:18,1
DA:19,1
DA:20,1
DA:23,0
DA:24,0
LF:9
LH:7
end_of_record
SF:/social-network-microservices/src/utils_thrift.h
FN:16,_ZN14social_network17get_server_socketERKN8nlohmann10basic_jsonISt3mapSt6vectorNSt7__cxx1112basic_stringIcSt11char_traitsIcESaIcEEEblmdSaNS0_14adl_serializerEEERKS9_i
FNDA:1,_ZN14social_network17get_server_socketERKN8nlohmann10basic_jsonISt3mapSt6vectorNSt7__cxx1112basic_stringIcSt11char_traitsIcESaIcEEEblmdSaNS0_14adl_serializerEEERKS9_i
FNF:1
FNH:1
DA:16,1
DA:17,1
DA:18,1
DA:19,0
DA:20,0
DA:21,0
DA:22,0
DA:24,0
DA:25,0
DA:26,0
DA:27,0
DA:28,0
DA:33,0
DA:35,1
LF:14
LH:4
end_of_record
