TN:
TN:
TN:
TN:
SF:/social-network-microservices/src/ClientPool.h
FN:52,_ZN14social_network10ClientPoolINS_12ThriftClientINS_24PostStorageServiceClientEEEEC2ERKNSt7__cxx1112basic_stringIcSt11char_traitsIcESaIcEEESC_iiiiiRKN8nlohmann10basic_jsonISt3mapSt6vectorSA_blmdSaNSD_14adl_serializerEEE
FN:73,_ZN14social_network10ClientPoolINS_12ThriftClientINS_24PostStorageServiceClientEEEED2Ev
FN:81,_ZN14social_network10ClientPoolINS_12ThriftClientINS_24PostStorageServiceClientEEEE3PopEv
FN:91,_ZZN14social_network10ClientPoolINS_12ThriftClientINS_24PostStorageServiceClientEEEE3PopEvENKUlvE_clEv
FN:123,_ZN14social_network10ClientPoolINS_12ThriftClientINS_24PostStorageServiceClientEEEE4PushEPS3_
FN:131,_ZN14social_network10ClientPoolINS_12ThriftClientINS_24PostStorageServiceClientEEEE6RemoveEPS3_
FN:141,_ZN14social_network10ClientPoolINS_12ThriftClientINS_24PostStorageServiceClientEEEE9KeepaliveEPS3_
FNDA:1,_ZN14social_network10ClientPoolINS_12ThriftClientINS_24PostStorageServiceClientEEEEC2ERKNSt7__cxx1112basic_stringIcSt11char_traitsIcESaIcEEESC_iiiiiRKN8nlohmann10basic_jsonISt3mapSt6vectorSA_blmdSaNSD_14adl_serializerEEE
FNDA:0,_ZN14social_network10ClientPoolINS_12ThriftClientINS_24PostStorageServiceClientEEEED2Ev
FNDA:400,_ZN14social_network10ClientPoolINS_12ThriftClientINS_24PostStorageServiceClientEEEE3PopEv
FNDA:0,_ZZN14social_network10ClientPoolINS_12ThriftClientINS_24PostStorageServiceClientEEEE3PopEvENKUlvE_clEv
FNDA:301,_ZN14social_network10ClientPoolINS_12ThriftClientINS_24PostStorageServiceClientEEEE4PushEPS3_
FNDA:99,_ZN14social_network10ClientPoolINS_12ThriftClientINS_24PostStorageServiceClientEEEE6RemoveEPS3_
FNDA:400,_ZN14social_network10ClientPoolINS_12ThriftClientINS_24PostStorageServiceClientEEEE9KeepaliveEPS3_
FNF:7
FNH:5
DA:52,1
DA:55,1
DA:56,1
DA:57,1
DA:58,1
DA:59,1
DA:60,1
DA:61,1
DA:62,1
DA:63,1
DA:65,1
DA:66,0
DA:67,0
DA:69,1
DA:70,1
DA:73,0
DA:74,0
DA:75,0
DA:76,0
DA:78,0
DA:81,400
DA:82,400
DA:84,800
DA:85,400
DA:88,0
DA:89,0
DA:91,0
DA:92,0
DA:93,0
DA:94,0
DA:95,0
DA:96,0
DA:99,400
DA:100,300
DA:101,300
DA:103,100
DA:104,100
DA:106,400
DA:110,400
DA:112,400
DA:113,0
DA:114,0
DA:115,0
DA:116,0
DA:119,400
DA:123,301
DA:124,602
DA:125,301
DA:126,301
DA:127,301
DA:128,301
DA:131,99
DA:133,99
DA:134,198
DA:135,99
DA:136,99
DA:137,99
DA:138,99
DA:141,400
DA:142,800
DA:143,1200
DA:144,400
DA:145,99
DA:147,301
DA:149,400
LF:65
LH:46
end_of_record
SF:/social-network-microservices/src/GenericClient.h
FN:9,_ZN14social_network13GenericClientC2Ev
FN:11,_ZN14social_network13GenericClientD0Ev
FN:11,_ZN14social_network13GenericClientD2Ev
FNDA:100,_ZN14social_network13GenericClientC2Ev
FNDA:0,_ZN14social_network13GenericClientD0Ev
FNDA:99,_ZN14social_network13GenericClientD2Ev
FNF:3
FNH:2
DA:9,100
DA:11,99
LF:2
LH:2
end_of_record
SF:/social-network-microservices/src/ThriftClient.h
FN:73,_ZN14social_network12ThriftClientINS_24PostStorageServiceClientEEC2ERKNSt7__cxx1112basic_stringIcSt11char_traitsIcESaIcEEEiiRKN8nlohmann10basic_jsonISt3mapSt6vectorS8_blmdSaNSB_14adl_serializerEEE
FN:111,_ZN14social_network12ThriftClientINS_24PostStorageServiceClientEED0Ev
FN:111,_ZN14social_network12ThriftClientINS_24PostStorageServiceClientEED2Ev
FN:117,_ZNK14social_network12ThriftClientINS_24PostStorageServiceClientEE9GetClientEv
FN:122,_ZN14social_network12ThriftClientINS_24PostStorageServiceClientEE11IsConnectedEv
FN:127,_ZN14social_network12ThriftClientINS_24PostStorageServiceClientEE7ConnectEv
FN:138,_ZN14social_network12ThriftClientINS_24PostStorageServiceClientEE10DisconnectEv
FNDA:100,_ZN14social_network12ThriftClientINS_24PostStorageServiceClientEEC2ERKNSt7__cxx1112basic_stringIcSt11char_traitsIcESaIcEEEiiRKN8nlohmann10basic_jsonISt3mapSt6vectorS8_blmdSaNSB_14adl_serializerEEE
FNDA:99,_ZN14social_network12ThriftClientINS_24PostStorageServiceClientEED0Ev
FNDA:99,_ZN14social_network12ThriftClientINS_24PostStorageServiceClientEED2Ev
FNDA:400,_ZNK14social_network12ThriftClientINS_24PostStorageServiceClientEE9GetClientEv
FNDA:499,_ZN14social_network12ThriftClientINS_24PostStorageServiceClientEE11IsConnectedEv
FNDA:400,_ZN14social_network12ThriftClientINS_24PostStorageServiceClientEE7ConnectEv
FNDA:99,_ZN14social_network12ThriftClientINS_24PostStorageServiceClientEE10DisconnectEv
FNF:7
FNH:7
DA:73,100
DA:74,100
DA:75,100
DA:76,100
DA:77,100
DA:79,100
DA:80,0
DA:81,0
DA:83,0
DA:84,0
DA:85,0
DA:86,0
DA:95,0
DA:96,0
DA:98,100
DA:100,100
DA:101,100
DA:102,100
DA:103,100
DA:104,300
DA:105,200
DA:106,200
DA:107,100
DA:108,100
DA:111,198
DA:112,99
DA:113,99
DA:114,297
DA:117,400
DA:118,400
DA:122,499
DA:123,499
DA:127,400
DA:128,400
DA:130,100
DA:131,0
DA:132,0
DA:135,400
DA:138,99
DA:139,99
DA:141,99
DA:142,0
DA:143,0
DA:146,99
LF:44
LH:32
end_of_record
SF:/social-network-microservices/src/UserTimelineService/UserTimelineHandler.h
FN:33,_ZN14social_network19UserTimelineHandlerD2Ev
FN:33,_ZN14social_network19UserTimelineHandlerD0Ev
FN:53,_ZN14social_network19UserTimelineHandlerC2EPN2sw5redis5RedisEP21_mongoc_client_pool_tPNS_10ClientPoolINS_12ThriftClientINS_24PostStorageServiceClientEEEEE
FN:64,_ZN14social_network19UserTimelineHandlerC2EPN2sw5redis5RedisES4_P21_mongoc_client_pool_tPNS_10ClientPoolINS_12ThriftClientINS_24PostStorageServiceClientEEEEE
FN:75,_ZN14social_network19UserTimelineHandlerC2EPN2sw5redis12RedisClusterEP21_mongoc_client_pool_tPNS_10ClientPoolINS_12ThriftClientINS_24PostStorageServiceClientEEEEE
FN:86,_ZN14social_network19UserTimelineHandler25IsRedisReplicationEnabledEv
FN:90,_ZN14social_network19UserTimelineHandler17WriteUserTimelineEllllRKSt3mapINSt7__cxx1112basic_stringIcSt11char_traitsIcESaIcEEES7_St4lessIS7_ESaISt4pairIKS7_S7_EEE
FN:190,_ZN14social_network19UserTimelineHandler16ReadUserTimelineERSt6vectorINS_4PostESaIS2_EElliiRKSt3mapINSt7__cxx1112basic_stringIcSt11char_traitsIcESaIcEEESC_St4lessISC_ESaISt4pairIKSC_SC_EEE
FN:310,_ZZN14social_network19UserTimelineHandler16ReadUserTimelineERSt6vectorINS_4PostESaIS2_EElliiRKSt3mapINSt7__cxx1112basic_stringIcSt11char_traitsIcESaIcEEESC_St4lessISC_ESaISt4pairIKSC_SC_EEEENKUlvE_clEv
FNDA:0,_ZN14social_network19UserTimelineHandlerD0Ev
FNDA:0,_ZN14social_network19UserTimelineHandlerD2Ev
FNDA:1,_ZN14social_network19UserTimelineHandlerC2EPN2sw5redis5RedisEP21_mongoc_client_pool_tPNS_10ClientPoolINS_12ThriftClientINS_24PostStorageServiceClientEEEEE
FNDA:0,_ZN14social_network19UserTimelineHandlerC2EPN2sw5redis5RedisES4_P21_mongoc_client_pool_tPNS_10ClientPoolINS_12ThriftClientINS_24PostStorageServiceClientEEEEE
FNDA:0,_ZN14social_network19UserTimelineHandlerC2EPN2sw5redis12RedisClusterEP21_mongoc_client_pool_tPNS_10ClientPoolINS_12ThriftClientINS_24PostStorageServiceClientEEEEE
FNDA:0,_ZN14social_network19UserTimelineHandler25IsRedisReplicationEnabledEv
FNDA:0,_ZN14social_network19UserTimelineHandler17WriteUserTimelineEllllRKSt3mapINSt7__cxx1112basic_stringIcSt11char_traitsIcESaIcEEES7_St4lessIS7_ESaISt4pairIKS7_S7_EEE
FNDA:800,_ZN14social_network19UserTimelineHandler16ReadUserTimelineERSt6vectorINS_4PostESaIS2_EElliiRKSt3mapINSt7__cxx1112basic_stringIcSt11char_traitsIcESaIcEEESC_St4lessISC_ESaISt4pairIKSC_SC_EEE
FNDA:400,_ZZN14social_network19UserTimelineHandler16ReadUserTimelineERSt6vectorINS_4PostESaIS2_EElliiRKSt3mapINSt7__cxx1112basic_stringIcSt11char_traitsIcESaIcEEESC_St4lessISC_ESaISt4pairIKSC_SC_EEEENKUlvE_clEv
FNF:9
FNH:3
DA:33,0
DA:53,1
DA:55,1
DA:56,1
DA:57,1
DA:58,1
DA:59,1
DA:60,1
DA:61,1
DA:62,1
DA:64,0
DA:66,0
DA:67,0
DA:68,0
DA:69,0
DA:70,0
DA:71,0
DA:72,0
DA:73,0
DA:75,0
DA:77,0
DA:78,0
DA:79,0
DA:80,0
DA:81,0
DA:82,0
DA:83,0
DA:84,0
DA:86,0
DA:87,0
DA:90,0
DA:94,0
DA:96,0
DA:97,0
DA:98,0
DA:99,0
DA:100,0
DA:101,0
DA:102,0
DA:105,0
DA:106,0
DA:107,0
DA:108,0
DA:109,0
DA:110,0
DA:113,0
DA:114,0
DA:115,0
DA:116,0
DA:117,0
DA:118,0
DA:119,0
DA:121,0
DA:123,0
DA:125,0
DA:130,0
DA:132,0
DA:135,0
DA:136,0
DA:138,0
DA:142,0
DA:143,0
DA:144,0
DA:145,0
DA:146,0
DA:147,0
DA:148,0
DA:149,0
DA:150,0
DA:151,0
DA:152,0
DA:153,0
DA:154,0
DA:158,0
DA:159,0
DA:160,0
DA:161,0
DA:162,0
DA:165,0
DA:167,0
DA:169,0
DA:170,0
DA:171,0
DA:172,0
DA:173,0
DA:174,0
DA:177,0
DA:178,0
DA:180,0
DA:181,0
DA:182,0
DA:184,0
DA:185,0
DA:187,0
DA:188,0
DA:190,800
DA:194,1600
DA:196,1200
DA:197,1200
DA:198,1200
DA:199,1200
DA:200,1600
DA:201,2800
DA:202,800
DA:204,800
DA:205,400
DA:208,800
DA:210,1600
DA:212,800
DA:214,400
DA:215,800
DA:216,400
DA:217,0
DA:218,0
DA:219,0
DA:222,0
DA:223,0
DA:224,0
DA:225,0
DA:226,0
DA:228,400
DA:230,800
DA:231,400
DA:232,0
DA:236,400
DA:237,800
DA:238,400
DA:241,400
DA:242,400
DA:243,0
DA:244,0
DA:245,0
DA:246,0
DA:249,400
DA:250,400
DA:251,0
DA:252,0
DA:253,0
DA:254,0
DA:257,400
DA:258,400
DA:261,800
DA:263,1600
DA:265,400
DA:266,400
DA:268,400
DA:269,400
DA:274,0
DA:275,0
DA:276,0
DA:277,0
DA:278,0
DA:279,0
DA:280,0
DA:281,0
DA:283,0
DA:284,0
DA:285,0
DA:286,0
DA:287,0
DA:288,0
DA:291,0
DA:292,0
DA:295,0
DA:296,0
DA:297,0
DA:298,0
DA:299,0
DA:302,400
DA:303,400
DA:304,400
DA:305,400
DA:306,400
DA:310,400
DA:311,800
DA:312,400
DA:313,0
DA:314,0
DA:315,0
DA:316,0
DA:318,400
DA:319,400
DA:321,400
DA:322,800
DA:323,0
DA:324,0
DA:325,0
DA:326,0
DA:328,400
DA:329,400
DA:330,800
DA:332,400
DA:333,0
DA:335,0
DA:337,0
DA:338,0
DA:340,0
DA:341,0
DA:342,0
DA:344,0
DA:347,0
DA:349,0
DA:351,0
DA:352,0
DA:353,0
DA:355,0
DA:359,400
DA:360,0
DA:361,0
DA:362,0
DA:364,400
DA:366,800
LF:212
LH:63
end_of_record
SF:/social-network-microservices/src/UserTimelineService/UserTimelineService.cpp
FN:27,_Z13sigintHandleri
FN:29,_Z14handle_sigusr1i
FN:33,main
FN:158,_Z41__static_initialization_and_destruction_0ii
FN:158,_GLOBAL__sub_I__ZN14social_network11init_loggerEv
FNDA:0,_Z13sigintHandleri
FNDA:1,_Z14handle_sigusr1i
FNDA:1,main
FNDA:1,_GLOBAL__sub_I__ZN14social_network11init_loggerEv
FNDA:1,_Z41__static_initialization_and_destruction_0ii
FNF:5
FNH:4
DA:27,0
DA:29,1
DA:30,1
DA:31,0
DA:33,1
DA:34,1
DA:35,1
DA:36,1
DA:40,1
DA:41,2
DA:43,2
DA:44,1
DA:46,1
DA:47,1
DA:48,1
DA:50,1
DA:51,0
DA:52,0
DA:55,1
DA:56,1
DA:57,1
DA:58,0
DA:62,1
DA:64,1
DA:65,1
DA:66,0
DA:69,1
DA:71,1
DA:72,1
DA:73,1
DA:74,1
DA:76,1
DA:78,1
DA:79,1
DA:81,1
DA:82,1
DA:85,1
DA:87,1
DA:88,0
DA:91,1
DA:92,0
DA:93,0
DA:99,1
DA:101,1
DA:102,1
DA:103,0
DA:104,0
DA:106,1
DA:107,3
DA:108,1
DA:109,1
DA:110,0
DA:111,0
DA:114,1
DA:116,1
DA:118,1
DA:120,0
DA:121,0
DA:122,0
DA:126,0
DA:127,0
DA:128,0
DA:129,0
DA:131,1
DA:132,0
DA:133,0
DA:134,0
DA:135,0
DA:139,0
DA:140,0
DA:141,0
DA:142,0
DA:147,1
DA:148,2
DA:149,2
DA:153,2
DA:154,6
DA:155,2
DA:156,1
DA:158,3
LF:80
LH:52
end_of_record
SF:/social-network-microservices/src/logger.h
FN:17,_ZN14social_network11init_loggerEv
FNDA:1,_ZN14social_network11init_loggerEv
FNF:1
FNH:1
DA:17,1
DA:19,1
DA:20,1
DA:22,1
DA:23,1
DA:24,2
DA:25,2
DA:26,1
DA:27,1
LF:9
LH:9
end_of_record
SF:/social-network-microservices/src/tracing.h
FN:20,_ZN14social_network13TextMapReaderD0Ev
FN:20,_ZN14social_network13TextMapReaderD2Ev
FN:22,_ZN14social_network13TextMapReaderC2ERKSt3mapINSt7__cxx1112basic_stringIcSt11char_traitsIcESaIcEEES7_St4lessIS7_ESaISt4pairIKS7_S7_EEE
FN:25,_ZNK14social_network13TextMapReader10ForeachKeyESt8functionIFN11opentracing2v28expectedIvSt10error_codeEENS3_11string_viewES7_EE
FN:39,_ZN14social_network13TextMapWriterD2Ev
FN:39,_ZN14social_network13TextMapWriterD0Ev
FN:41,_ZN14social_network13TextMapWriterC2ERSt3mapINSt7__cxx1112basic_stringIcSt11char_traitsIcESaIcEEES7_St4lessIS7_ESaISt4pairIKS7_S7_EEE
FN:44,_ZNK14social_network13TextMapWriter3SetEN11opentracing2v211string_viewES3_
FN:53,_ZN14social_network11SetUpTracerERKNSt7__cxx1112basic_stringIcSt11char_traitsIcESaIcEEES7_
FNDA:0,_ZN14social_network13TextMapReaderD0Ev
FNDA:800,_ZN14social_network13TextMapReaderD2Ev
FNDA:800,_ZN14social_network13TextMapReaderC2ERKSt3mapINSt7__cxx1112basic_stringIcSt11char_traitsIcESaIcEEES7_St4lessIS7_ESaISt4pairIKS7_S7_EEE
FNDA:800,_ZNK14social_network13TextMapReader10ForeachKeyESt8functionIFN11opentracing2v28expectedIvSt10error_codeEENS3_11string_viewES7_EE
FNDA:0,_ZN14social_network13TextMapWriterD0Ev
FNDA:800,_ZN14social_network13TextMapWriterD2Ev
FNDA:800,_ZN14social_network13TextMapWriterC2ERSt3mapINSt7__cxx1112basic_stringIcSt11char_traitsIcESaIcEEES7_St4lessIS7_ESaISt4pairIKS7_S7_EEE
FNDA:800,_ZNK14social_network13TextMapWriter3SetEN11opentracing2v211string_viewES3_
FNDA:1,_ZN14social_network11SetUpTracerERKNSt7__cxx1112basic_stringIcSt11char_traitsIcESaIcEEES7_
FNF:9
FNH:7
DA:20,800
DA:22,800
DA:23,800
DA:25,800
DA:28,1600
DA:29,1600
DA:30,800
DA:32,800
DA:39,800
DA:41,800
DA:42,800
DA:44,800
DA:45,800
DA:46,800
DA:53,1
DA:56,2
DA:63,2
DA:65,1
DA:66,3
DA:70,2
DA:71,1
DA:73,1
DA:75,0
DA:77,0
DA:78,0
DA:83,1
LF:26
LH:23
end_of_record
SF:/social-network-microservices/src/utils.h
FN:14,_ZN14social_network16load_config_fileERKNSt7__cxx1112basic_stringIcSt11char_traitsIcESaIcEEEPN8nlohmann10basic_jsonISt3mapSt6vectorS5_blmdSaNS8_14adl_serializerEEE
FNDA:1,_ZN14social_network16load_config_fileERKNSt7__cxx1112basic_stringIcSt11char_traitsIcESaIcEEEPN8nlohmann10basic_jsonISt3mapSt6vectorS5_blmdSaNS8_14adl_serializerEEE
FNF:1
FNH:1
DA:14,1
DA:15,2
DA:16,1
DA:17,1
DA:18,1
DA:19,1
DA:20,1
DA:23,0
DA:24,0
LF:9
LH:7
end_of_record
SF:/social-network-microservices/src/utils_mongodb.h
FN:11,_ZN14social_network24init_mongodb_client_poolERKN8nlohmann10basic_jsonISt3mapSt6vectorNSt7__cxx1112basic_stringIcSt11char_traitsIcESaIcEEEblmdSaNS0_14adl_serializerEEERKS9_j
FN:49,_ZN14social_network11CreateIndexEP16_mongoc_client_tRKNSt7__cxx1112basic_stringIcSt11char_traitsIcESaIcEEES9_b
FNDA:1,_ZN14social_network24init_mongodb_client_poolERKN8nlohmann10basic_jsonISt3mapSt6vectorNSt7__cxx1112basic_stringIcSt11char_traitsIcESaIcEEEblmdSaNS0_14adl_serializerEEERKS9_j
FNDA:1,_ZN14social_network11CreateIndexEP16_mongoc_client_tRKNSt7__cxx1112basic_stringIcSt11char_traitsIcESaIcEEES9_b
FNF:2
FNH:2
DA:11,1
DA:16,2
DA:17,1
DA:18,2
DA:19,4
DA:21,1
DA:23,1
DA:26,1
DA:28,1
DA:29,0
DA:30,0
DA:31,0
DA:32,0
DA:33,0
DA:35,1
DA:36,0
DA:38,0
DA:39,0
DA:40,0
DA:43,1
DA:44,1
DA:45,1
DA:49,1
DA:62,1
DA:63,1
DA:64,1
DA:65,1
DA:66,1
DA:72,1
DA:74,1
DA:75,1
DA:76,0
DA:78,1
DA:79,1
DA:80,1
DA:81,1
DA:83,1
LF:37
LH:27
end_of_record
SF:/social-network-microservices/src/utils_redis.h
FN:10,_ZN14social_network22init_redis_client_poolERKN8nlohmann10basic_jsonISt3mapSt6vectorNSt7__cxx1112basic_stringIcSt11char_traitsIcESaIcEEEblmdSaNS0_14adl_serializerEEERKS9_
FN:33,_ZN14social_network30init_redis_cluster_client_poolERKN8nlohmann10basic_jsonISt3mapSt6vectorNSt7__cxx1112basic_stringIcSt11char_traitsIcESaIcEEEblmdSaNS0_14adl_serializerEEERKS9_
FN:56,_ZN14social_network30init_redis_replica_client_poolERKN8nlohmann10basic_jsonISt3mapSt6vectorNSt7__cxx1112basic_stringIcSt11char_traitsIcESaIcEEEblmdSaNS0_14adl_serializerEEERKS9_
FNDA:1,_ZN14social_network22init_redis_client_poolERKN8nlohmann10basic_jsonISt3mapSt6vectorNSt7__cxx1112basic_stringIcSt11char_traitsIcESaIcEEEblmdSaNS0_14adl_serializerEEERKS9_
FNDA:0,_ZN14social_network30init_redis_cluster_client_poolERKN8nlohmann10basic_jsonISt3mapSt6vectorNSt7__cxx1112basic_stringIcSt11char_traitsIcESaIcEEEblmdSaNS0_14adl_serializerEEERKS9_
FNDA:0,_ZN14social_network30init_redis_replica_client_poolERKN8nlohmann10basic_jsonISt3mapSt6vectorNSt7__cxx1112basic_stringIcSt11char_traitsIcESaIcEEEblmdSaNS0_14adl_serializerEEERKS9_
FNF:3
FNH:1
DA:10,1
DA:14,2
DA:15,1
DA:16,1
DA:18,1
DA:19,0
DA:21,0
DA:22,0
DA:25,1
DA:26,1
DA:27,1
DA:28,1
DA:30,2
DA:33,0
DA:37,0
DA:38,0
DA:39,0
DA:41,0
DA:42,0
DA:44,0
DA:45,0
DA:48,0
DA:49,0
DA:50,0
DA:51,0
DA:53,0
DA:56,0
DA:60,0
DA:61,0
DA:62,0
DA:64,0
DA:65,0
DA:67,0
DA:68,0
DA:71,0
DA:72,0
DA:73,0
DA:74,0
DA:76,0
LF:39
LH:10
end_of_record
SF:/social-network-microservices/src/utils_thrift.h
FN:16,_ZN14social_network17get_server_socketERKN8nlohmann10basic_jsonISt3mapSt6vectorNSt7__cxx1112basic_stringIcSt11char_traitsIcESaIcEEEblmdSaNS0_14adl_serializerEEERKS9_i
FNDA:1,_ZN14social_network17get_server_socketERKN8nlohmann10basic_jsonISt3mapSt6vectorNSt7__cxx1112basic_stringIcSt11char_traitsIcESaIcEEEblmdSaNS0_14adl_serializerEEERKS9_i
FNF:1
FNH:1
DA:16,1
DA:17,1
DA:18,1
DA:19,0
DA:20,0
DA:21,0
DA:22,0
DA:24,0
DA:25,0
DA:26,0
DA:27,0
DA:28,0
DA:33,0
DA:35,1
LF:14
LH:4
end_of_record
