TN:
TN:
TN:
TN:
TN:
SF:/social-network-microservices/src/ClientPool.h
FN:52,_ZN14social_network10ClientPoolINS_12ThriftClientINS_24SocialGraphServiceClientEEEEC2ERKNSt7__cxx1112basic_stringIcSt11char_traitsIcESaIcEEESC_iiiiiRKN8nlohmann10basic_jsonISt3mapSt6vectorSA_blmdSaNSD_14adl_serializerEEE
FN:52,_ZN14social_network10ClientPoolINS_12ThriftClientINS_24PostStorageServiceClientEEEEC2ERKNSt7__cxx1112basic_stringIcSt11char_traitsIcESaIcEEESC_iiiiiRKN8nlohmann10basic_jsonISt3mapSt6vectorSA_blmdSaNSD_14adl_serializerEEE
FN:73,_ZN14social_network10ClientPoolINS_12ThriftClientINS_24PostStorageServiceClientEEEED2Ev
FN:73,_ZN14social_network10ClientPoolINS_12ThriftClientINS_24SocialGraphServiceClientEEEED2Ev
FN:81,_ZN14social_network10ClientPoolINS_12ThriftClientINS_24PostStorageServiceClientEEEE3PopEv
FN:81,_ZN14social_network10ClientPoolINS_12ThriftClientINS_24SocialGraphServiceClientEEEE3PopEv
FN:91,_ZZN14social_network10ClientPoolINS_12ThriftClientINS_24SocialGraphServiceClientEEEE3PopEvENKUlvE_clEv
FN:91,_ZZN14social_network10ClientPoolINS_12ThriftClientINS_24PostStorageServiceClientEEEE3PopEvENKUlvE_clEv
FN:123,_ZN14social_network10ClientPoolINS_12ThriftClientINS_24PostStorageServiceClientEEEE4PushEPS3_
FN:123,_ZN14social_network10ClientPoolINS_12ThriftClientINS_24SocialGraphServiceClientEEEE4PushEPS3_
FN:131,_ZN14social_network10ClientPoolINS_12ThriftClientINS_24SocialGraphServiceClientEEEE6RemoveEPS3_
FN:131,_ZN14social_network10ClientPoolINS_12ThriftClientINS_24PostStorageServiceClientEEEE6RemoveEPS3_
FN:141,_ZN14social_network10ClientPoolINS_12ThriftClientINS_24SocialGraphServiceClientEEEE9KeepaliveEPS3_
FN:141,_ZN14social_network10ClientPoolINS_12ThriftClientINS_24PostStorageServiceClientEEEE9KeepaliveEPS3_
FNDA:1,_ZN14social_network10ClientPoolINS_12ThriftClientINS_24SocialGraphServiceClientEEEEC2ERKNSt7__cxx1112basic_stringIcSt11char_traitsIcESaIcEEESC_iiiiiRKN8nlohmann10basic_jsonISt3mapSt6vectorSA_blmdSaNSD_14adl_serializerEEE
FNDA:1,_ZN14social_network10ClientPoolINS_12ThriftClientINS_24PostStorageServiceClientEEEEC2ERKNSt7__cxx1112basic_stringIcSt11char_traitsIcESaIcEEESC_iiiiiRKN8nlohmann10basic_jsonISt3mapSt6vectorSA_blmdSaNSD_14adl_serializerEEE
FNDA:0,_ZN14social_network10ClientPoolINS_12ThriftClientINS_24SocialGraphServiceClientEEEED2Ev
FNDA:0,_ZN14social_network10ClientPoolINS_12ThriftClientINS_24PostStorageServiceClientEEEED2Ev
FNDA:200,_ZN14social_network10ClientPoolINS_12ThriftClientINS_24PostStorageServiceClientEEEE3PopEv
FNDA:200,_ZN14social_network10ClientPoolINS_12ThriftClientINS_24SocialGraphServiceClientEEEE3PopEv
FNDA:0,_ZZN14social_network10ClientPoolINS_12ThriftClientINS_24PostStorageServiceClientEEEE3PopEvENKUlvE_clEv
FNDA:0,_ZZN14social_network10ClientPoolINS_12ThriftClientINS_24SocialGraphServiceClientEEEE3PopEvENKUlvE_clEv
FNDA:134,_ZN14social_network10ClientPoolINS_12ThriftClientINS_24PostStorageServiceClientEEEE4PushEPS3_
FNDA:134,_ZN14social_network10ClientPoolINS_12ThriftClientINS_24SocialGraphServiceClientEEEE4PushEPS3_
FNDA:66,_ZN14social_network10ClientPoolINS_12ThriftClientINS_24PostStorageServiceClientEEEE6RemoveEPS3_
FNDA:66,_ZN14social_network10ClientPoolINS_12ThriftClientINS_24SocialGraphServiceClientEEEE6RemoveEPS3_
FNDA:200,_ZN14social_network10ClientPoolINS_12ThriftClientINS_24PostStorageServiceClientEEEE9KeepaliveEPS3_
FNDA:200,_ZN14social_network10ClientPoolINS_12ThriftClientINS_24SocialGraphServiceClientEEEE9KeepaliveEPS3_
FNF:14
FNH:10
DA:52,2
DA:55,2
DA:56,2
DA:57,2
DA:58,2
DA:59,2
DA:60,2
DA:61,2
DA:62,2
DA:63,2
DA:65,2
DA:66,0
DA:67,0
DA:69,2
DA:70,2
DA:73,0
DA:74,0
DA:75,0
DA:76,0
DA:78,0
DA:81,400
DA:82,400
DA:84,800
DA:85,400
DA:88,0
DA:89,0
DA:91,0
DA:92,0
DA:93,0
DA:94,0
DA:95,0
DA:96,0
DA:99,400
DA:100,266
DA:101,266
DA:103,134
DA:104,134
DA:106,400
DA:110,400
DA:112,400
DA:113,0
DA:114,0
DA:115,0
DA:116,0
DA:119,400
DA:123,268
DA:124,536
DA:125,268
DA:126,268
DA:127,268
DA:128,268
DA:131,132
DA:133,132
DA:134,264
DA:135,132
DA:136,132
DA:137,132
DA:138,132
DA:141,400
DA:142,800
DA:143,1200
DA:144,400
DA:145,132
DA:147,268
DA:149,400
LF:65
LH:46
end_of_record
SF:/social-network-microservices/src/GenericClient.h
FN:9,_ZN14social_network13GenericClientC2Ev
FN:11,_ZN14social_network13GenericClientD0Ev
FN:11,_ZN14social_network13GenericClientD2Ev
FNDA:134,_ZN14social_network13GenericClientC2Ev
FNDA:0,_ZN14social_network13GenericClientD0Ev
FNDA:132,_ZN14social_network13GenericClientD2Ev
FNF:3
FNH:2
DA:9,134
DA:11,132
LF:2
LH:2
end_of_record
SF:/social-network-microservices/src/HomeTimelineService/HomeTimelineHandler.h
FN:35,_ZN14social_network19HomeTimelineHandlerD0Ev
FN:35,_ZN14social_network19HomeTimelineHandlerD2Ev
FN:55,_ZN14social_network19HomeTimelineHandlerC2EPN2sw5redis5RedisEPNS_10ClientPoolINS_12ThriftClientINS_24PostStorageServiceClientEEEEEPNS5_INS6_INS_24SocialGraphServiceClientEEEEE
FN:68,_ZN14social_network19HomeTimelineHandlerC2EPN2sw5redis12RedisClusterEPNS_10ClientPoolINS_12ThriftClientINS_24PostStorageServiceClientEEEEEPNS5_INS6_INS_24SocialGraphServiceClientEEEEE
FN:81,_ZN14social_network19HomeTimelineHandlerC2EPN2sw5redis5RedisES4_PNS_10ClientPoolINS_12ThriftClientINS_24PostStorageServiceClientEEEEEPNS5_INS6_INS_24SocialGraphServiceClientEEEEE
FN:95,_ZN14social_network19HomeTimelineHandler25IsRedisReplicationEnabledEv
FN:99,_ZN14social_network19HomeTimelineHandler17WriteHomeTimelineEllllRKSt6vectorIlSaIlEERKSt3mapINSt7__cxx1112basic_stringIcSt11char_traitsIcESaIcEEESC_St4lessISC_ESaISt4pairIKSC_SC_EEE
FN:219,_ZN14social_network19HomeTimelineHandler16ReadHomeTimelineERSt6vectorINS_4PostESaIS2_EElliiRKSt3mapINSt7__cxx1112basic_stringIcSt11char_traitsIcESaIcEEESC_St4lessISC_ESaISt4pairIKSC_SC_EEE
FNDA:0,_ZN14social_network19HomeTimelineHandlerD0Ev
FNDA:0,_ZN14social_network19HomeTimelineHandlerD2Ev
FNDA:1,_ZN14social_network19HomeTimelineHandlerC2EPN2sw5redis5RedisEPNS_10ClientPoolINS_12ThriftClientINS_24PostStorageServiceClientEEEEEPNS5_INS6_INS_24SocialGraphServiceClientEEEEE
FNDA:0,_ZN14social_network19HomeTimelineHandlerC2EPN2sw5redis12RedisClusterEPNS_10ClientPoolINS_12ThriftClientINS_24PostStorageServiceClientEEEEEPNS5_INS6_INS_24SocialGraphServiceClientEEEEE
FNDA:0,_ZN14social_network19HomeTimelineHandlerC2EPN2sw5redis5RedisES4_PNS_10ClientPoolINS_12ThriftClientINS_24PostStorageServiceClientEEEEEPNS5_INS6_INS_24SocialGraphServiceClientEEEEE
FNDA:0,_ZN14social_network19HomeTimelineHandler25IsRedisReplicationEnabledEv
FNDA:200,_ZN14social_network19HomeTimelineHandler17WriteHomeTimelineEllllRKSt6vectorIlSaIlEERKSt3mapINSt7__cxx1112basic_stringIcSt11char_traitsIcESaIcEEESC_St4lessISC_ESaISt4pairIKSC_SC_EEE
FNDA:1000,_ZN14social_network19HomeTimelineHandler16ReadHomeTimelineERSt6vectorINS_4PostESaIS2_EElliiRKSt3mapINSt7__cxx1112basic_stringIcSt11char_traitsIcESaIcEEESC_St4lessISC_ESaISt4pairIKSC_SC_EEE
FNF:8
FNH:3
DA:35,0
DA:55,1
DA:59,1
DA:60,1
DA:61,1
DA:62,1
DA:63,1
DA:64,1
DA:65,1
DA:66,1
DA:68,0
DA:72,0
DA:73,0
DA:74,0
DA:75,0
DA:76,0
DA:77,0
DA:78,0
DA:79,0
DA:81,0
DA:86,0
DA:87,0
DA:88,0
DA:89,0
DA:90,0
DA:91,0
DA:92,0
DA:93,0
DA:95,0
DA:96,0
DA:99,200
DA:103,400
DA:105,400
DA:106,400
DA:107,400
DA:108,800
DA:111,400
DA:112,800
DA:113,400
DA:114,400
DA:115,200
DA:117,200
DA:118,200
DA:119,0
DA:120,0
DA:121,0
DA:122,0
DA:124,200
DA:125,400
DA:128,200
DA:129,0
DA:130,0
DA:131,0
DA:132,0
DA:134,200
DA:135,200
DA:136,400
DA:138,400
DA:139,200
DA:143,400
DA:145,800
DA:146,400
DA:149,200
DA:150,400
DA:151,6800
DA:152,13200
DA:153,19800
DA:156,400
DA:157,400
DA:158,0
DA:159,0
DA:160,0
DA:164,0
DA:165,0
DA:166,0
DA:167,0
DA:168,0
DA:171,0
DA:172,0
DA:174,0
DA:175,0
DA:176,0
DA:182,0
DA:183,0
DA:185,0
DA:186,0
DA:187,0
DA:188,0
DA:189,0
DA:190,0
DA:191,0
DA:192,0
DA:193,0
DA:195,0
DA:196,0
DA:197,0
DA:198,0
DA:203,0
DA:204,0
DA:205,0
DA:207,0
DA:208,0
DA:209,0
DA:210,0
DA:214,200
DA:215,400
DA:216,200
DA:219,1000
DA:222,2000
DA:224,1200
DA:225,1200
DA:226,1200
DA:227,1200
DA:228,2000
DA:229,3200
DA:230,1000
DA:232,1000
DA:233,800
DA:236,400
DA:238,800
DA:240,400
DA:242,200
DA:243,600
DA:244,200
DA:245,200
DA:247,0
DA:248,0
DA:249,0
DA:250,0
DA:254,0
DA:255,0
DA:256,0
DA:258,0
DA:259,0
DA:260,0
DA:262,200
DA:264,400
DA:265,200
DA:266,0
DA:269,200
DA:270,200
DA:271,0
DA:272,0
DA:273,0
DA:274,0
DA:276,200
DA:278,200
DA:279,0
DA:280,0
DA:281,0
DA:282,0
DA:284,200
DA:285,400
DA:287,200
DA:288,400
LF:155
LH:72
end_of_record
SF:/social-network-microservices/src/HomeTimelineService/HomeTimelineService.cpp
FN:25,_Z13sigintHandleri
FN:27,_Z14handle_sigusr1i
FN:31,main
FN:151,_GLOBAL__sub_I__ZN14social_network11init_loggerEv
FN:151,_Z41__static_initialization_and_destruction_0ii
FNDA:0,_Z13sigintHandleri
FNDA:1,_Z14handle_sigusr1i
FNDA:1,main
FNDA:1,_GLOBAL__sub_I__ZN14social_network11init_loggerEv
FNDA:1,_Z41__static_initialization_and_destruction_0ii
FNF:5
FNH:4
DA:25,0
DA:27,1
DA:28,1
DA:29,0
DA:31,1
DA:32,1
DA:33,1
DA:34,1
DA:38,1
DA:39,2
DA:41,2
DA:42,1
DA:44,1
DA:45,1
DA:46,1
DA:48,1
DA:49,0
DA:50,0
DA:53,1
DA:54,1
DA:55,1
DA:56,0
DA:60,1
DA:62,1
DA:63,1
DA:64,0
DA:67,1
DA:68,1
DA:70,1
DA:72,1
DA:73,1
DA:74,1
DA:75,1
DA:77,1
DA:79,1
DA:80,1
DA:81,1
DA:82,1
DA:84,1
DA:86,1
DA:87,0
DA:88,0
DA:94,1
DA:99,1
DA:102,1
DA:105,1
DA:106,0
DA:107,0
DA:110,0
DA:111,0
DA:115,0
DA:116,0
DA:118,0
DA:119,0
DA:124,1
DA:126,0
DA:128,0
DA:129,0
DA:132,0
DA:133,0
DA:135,0
DA:136,0
DA:139,1
DA:141,2
DA:142,2
DA:145,2
DA:146,6
DA:148,2
DA:149,1
DA:151,3
LF:70
LH:47
end_of_record
SF:/social-network-microservices/src/ThriftClient.h
FN:73,_ZN14social_network12ThriftClientINS_24PostStorageServiceClientEEC2ERKNSt7__cxx1112basic_stringIcSt11char_traitsIcESaIcEEEiiRKN8nlohmann10basic_jsonISt3mapSt6vectorS8_blmdSaNSB_14adl_serializerEEE
FN:73,_ZN14social_network12ThriftClientINS_24SocialGraphServiceClientEEC2ERKNSt7__cxx1112basic_stringIcSt11char_traitsIcESaIcEEEiiRKN8nlohmann10basic_jsonISt3mapSt6vectorS8_blmdSaNSB_14adl_serializerEEE
FN:111,_ZN14social_network12ThriftClientINS_24SocialGraphServiceClientEED0Ev
FN:111,_ZN14social_network12ThriftClientINS_24SocialGraphServiceClientEED2Ev
FN:111,_ZN14social_network12ThriftClientINS_24PostStorageServiceClientEED2Ev
FN:111,_ZN14social_network12ThriftClientINS_24PostStorageServiceClientEED0Ev
FN:117,_ZNK14social_network12ThriftClientINS_24PostStorageServiceClientEE9GetClientEv
FN:117,_ZNK14social_network12ThriftClientINS_24SocialGraphServiceClientEE9GetClientEv
FN:122,_ZN14social_network12ThriftClientINS_24SocialGraphServiceClientEE11IsConnectedEv
FN:122,_ZN14social_network12ThriftClientINS_24PostStorageServiceClientEE11IsConnectedEv
FN:127,_ZN14social_network12ThriftClientINS_24PostStorageServiceClientEE7ConnectEv
FN:127,_ZN14social_network12ThriftClientINS_24SocialGraphServiceClientEE7ConnectEv
FN:138,_ZN14social_network12ThriftClientINS_24PostStorageServiceClientEE10DisconnectEv
FN:138,_ZN14social_network12ThriftClientINS_24SocialGraphServiceClientEE10DisconnectEv
FNDA:67,_ZN14social_network12ThriftClientINS_24PostStorageServiceClientEEC2ERKNSt7__cxx1112basic_stringIcSt11char_traitsIcESaIcEEEiiRKN8nlohmann10basic_jsonISt3mapSt6vectorS8_blmdSaNSB_14adl_serializerEEE
FNDA:67,_ZN14social_network12ThriftClientINS_24SocialGraphServiceClientEEC2ERKNSt7__cxx1112basic_stringIcSt11char_traitsIcESaIcEEEiiRKN8nlohmann10basic_jsonISt3mapSt6vectorS8_blmdSaNSB_14adl_serializerEEE
FNDA:66,_ZN14social_network12ThriftClientINS_24PostStorageServiceClientEED0Ev
FNDA:66,_ZN14social_network12ThriftClientINS_24PostStorageServiceClientEED2Ev
FNDA:66,_ZN14social_network12ThriftClientINS_24SocialGraphServiceClientEED0Ev
FNDA:66,_ZN14social_network12ThriftClientINS_24SocialGraphServiceClientEED2Ev
FNDA:200,_ZNK14social_network12ThriftClientINS_24PostStorageServiceClientEE9GetClientEv
FNDA:200,_ZNK14social_network12ThriftClientINS_24SocialGraphServiceClientEE9GetClientEv
FNDA:266,_ZN14social_network12ThriftClientINS_24PostStorageServiceClientEE11IsConnectedEv
FNDA:266,_ZN14social_network12ThriftClientINS_24SocialGraphServiceClientEE11IsConnectedEv
FNDA:200,_ZN14social_network12ThriftClientINS_24PostStorageServiceClientEE7ConnectEv
FNDA:200,_ZN14social_network12ThriftClientINS_24SocialGraphServiceClientEE7ConnectEv
FNDA:66,_ZN14social_network12ThriftClientINS_24PostStorageServiceClientEE10DisconnectEv
FNDA:66,_ZN14social_network12ThriftClientINS_24SocialGraphServiceClientEE10DisconnectEv
FNF:14
FNH:14
DA:73,134
DA:74,134
DA:75,134
DA:76,134
DA:77,134
DA:79,134
DA:80,0
DA:81,0
DA:83,0
DA:84,0
DA:85,0
DA:86,0
DA:95,0
DA:96,0
DA:98,134
DA:100,134
DA:101,134
DA:102,134
DA:103,134
DA:104,402
DA:105,268
DA:106,268
DA:107,134
DA:108,134
DA:111,264
DA:112,132
DA:113,132
DA:114,396
DA:117,400
DA:118,400
DA:122,532
DA:123,532
DA:127,400
DA:128,400
DA:130,134
DA:131,0
DA:132,0
DA:135,400
DA:138,132
DA:139,132
DA:141,132
DA:142,0
DA:143,0
DA:146,132
LF:44
LH:32
end_of_record
SF:/social-network-microservices/src/logger.h
FN:17,_ZN14social_network11init_loggerEv
FNDA:1,_ZN14social_network11init_loggerEv
FNF:1
FNH:1
DA:17,1
DA:19,1
DA:20,1
DA:22,1
DA:23,1
DA:24,2
DA:25,2
DA:26,1
DA:27,1
LF:9
LH:9
end_of_record
SF:/social-network-microservices/src/tracing.h
FN:20,_ZN14social_network13TextMapReaderD2Ev
FN:20,_ZN14social_network13TextMapReaderD0Ev
FN:22,_ZN14social_network13TextMapReaderC2ERKSt3mapINSt7__cxx1112basic_stringIcSt11char_traitsIcESaIcEEES7_St4lessIS7_ESaISt4pairIKS7_S7_EEE
FN:25,_ZNK14social_network13TextMapReader10ForeachKeyESt8functionIFN11opentracing2v28expectedIvSt10error_codeEENS3_11string_viewES7_EE
FN:39,_ZN14social_network13TextMapWriterD2Ev
FN:39,_ZN14social_network13TextMapWriterD0Ev
FN:41,_ZN14social_network13TextMapWriterC2ERSt3mapINSt7__cxx1112basic_stringIcSt11char_traitsIcESaIcEEES7_St4lessIS7_ESaISt4pairIKS7_S7_EEE
FN:44,_ZNK14social_network13TextMapWriter3SetEN11opentracing2v211string_viewES3_
FN:53,_ZN14social_network11SetUpTracerERKNSt7__cxx1112basic_stringIcSt11char_traitsIcESaIcEEES7_
FNDA:0,_ZN14social_network13TextMapReaderD0Ev
FNDA:1200,_ZN14social_network13TextMapReaderD2Ev
FNDA:1200,_ZN14social_network13TextMapReaderC2ERKSt3mapINSt7__cxx1112basic_stringIcSt11char_traitsIcESaIcEEES7_St4lessIS7_ESaISt4pairIKS7_S7_EEE
FNDA:1200,_ZNK14social_network13TextMapReader10ForeachKeyESt8functionIFN11opentracing2v28expectedIvSt10error_codeEENS3_11string_viewES7_EE
FNDA:0,_ZN14social_network13TextMapWriterD0Ev
FNDA:1200,_ZN14social_network13TextMapWriterD2Ev
FNDA:1200,_ZN14social_network13TextMapWriterC2ERSt3mapINSt7__cxx1112basic_stringIcSt11char_traitsIcESaIcEEES7_St4lessIS7_ESaISt4pairIKS7_S7_EEE
FNDA:1200,_ZNK14social_network13TextMapWriter3SetEN11opentracing2v211string_viewES3_
FNDA:1,_ZN14social_network11SetUpTracerERKNSt7__cxx1112basic_stringIcSt11char_traitsIcESaIcEEES7_
FNF:9
FNH:7
DA:20,1200
DA:22,1200
DA:23,1200
DA:25,1200
DA:28,2400
DA:29,2400
DA:30,1200
DA:32,1200
DA:39,1200
DA:41,1200
DA:42,1200
DA:44,1200
DA:45,1200
DA:46,1200
DA:53,1
DA:56,2
DA:63,2
DA:65,1
DA:66,3
DA:70,2
DA:71,1
DA:73,1
DA:75,0
DA:77,0
DA:78,0
DA:83,1
LF:26
LH:23
end_of_record
SF:/social-network-microservices/src/utils.h
FN:14,_ZN14social_network16load_config_fileERKNSt7__cxx1112basic_stringIcSt11char_traitsIcESaIcEEEPN8nlohmann10basic_jsonISt3mapSt6vectorS5_blmdSaNS8_14adl_serializerEEE
FNDA:1,_ZN14social_network16load_config_fileERKNSt7__cxx1112basic_stringIcSt11char_traitsIcESaIcEEEPN8nlohmann10basic_jsonISt3mapSt6vectorS5_blmdSaNS8_14adl_serializerEEE
FNF:1
FNH:1
DA:14,1
DA:15,2
DA:16,1
DA:17,1
DA:18,1
DA:19,1
DA:20,1
DA:23,0
DA:24,0
LF:9
LH:7
end_of_record
SF:/social-network-microservices/src/utils_redis.h
FN:10,_ZN14social_network22init_redis_client_poolERKN8nlohmann10basic_jsonISt3mapSt6vectorNSt7__cxx1112basic_stringIcSt11char_traitsIcESaIcEEEblmdSaNS0_14adl_serializerEEERKS9_
FN:33,_ZN14social_network30init_redis_cluster_client_poolERKN8nlohmann10basic_jsonISt3mapSt6vectorNSt7__cxx1112basic_stringIcSt11char_traitsIcESaIcEEEblmdSaNS0_14adl_serializerEEERKS9_
FN:56,_ZN14social_network30init_redis_replica_client_poolERKN8nlohmann10basic_jsonISt3mapSt6vectorNSt7__cxx1112basic_stringIcSt11char_traitsIcESaIcEEEblmdSaNS0_14adl_serializerEEERKS9_
FNDA:1,_ZN14social_network22init_redis_client_poolERKN8nlohmann10basic_jsonISt3mapSt6vectorNSt7__cxx1112basic_stringIcSt11char_traitsIcESaIcEEEblmdSaNS0_14adl_serializerEEERKS9_
FNDA:0,_ZN14social_network30init_redis_cluster_client_poolERKN8nlohmann10basic_jsonISt3mapSt6vectorNSt7__cxx1112basic_stringIcSt11char_traitsIcESaIcEEEblmdSaNS0_14adl_serializerEEERKS9_
FNDA:0,_ZN14social_network30init_redis_replica_client_poolERKN8nlohmann10basic_jsonISt3mapSt6vectorNSt7__cxx1112basic_stringIcSt11char_traitsIcESaIcEEEblmdSaNS0_14adl_serializerEEERKS9_
FNF:3
FNH:1
DA:10,1
DA:14,2
DA:15,1
DA:16,1
DA:18,1
DA:19,0
DA:21,0
DA:22,0
DA:25,1
DA:26,1
DA:27,1
DA:28,1
DA:30,2
DA:33,0
DA:37,0
DA:38,0
DA:39,0
DA:41,0
DA:42,0
DA:44,0
DA:45,0
DA:48,0
DA:49,0
DA:50,0
DA:51,0
DA:53,0
DA:56,0
DA:60,0
DA:61,0
DA:62,0
DA:64,0
DA:65,0
DA:67,0
DA:68,0
DA:71,0
DA:72,0
DA:73,0
DA:74,0
DA:76,0
LF:39
LH:10
end_of_record
SF:/social-network-microservices/src/utils_thrift.h
FN:16,_ZN14social_network17get_server_socketERKN8nlohmann10basic_jsonISt3mapSt6vectorNSt7__cxx1112basic_stringIcSt11char_traitsIcESaIcEEEblmdSaNS0_14adl_serializerEEERKS9_i
FNDA:1,_ZN14social_network17get_server_socketERKN8nlohmann10basic_jsonISt3mapSt6vectorNSt7__cxx1112basic_stringIcSt11char_traitsIcESaIcEEEblmdSaNS0_14adl_serializerEEERKS9_i
FNF:1
FNH:1
DA:16,1
DA:17,1
DA:18,1
DA:19,0
DA:20,0
DA:21,0
DA:22,0
DA:24,0
DA:25,0
DA:26,0
DA:27,0
DA:28,0
DA:33,0
DA:35,1
LF:14
LH:4
end_of_record
