TN:
TN:
TN:
TN:
SF:/social-network-microservices/src/ClientPool.h
FN:52,_ZN14social_network10ClientPoolINS_12ThriftClientINS_17UserServiceClientEEEEC2ERKNSt7__cxx1112basic_stringIcSt11char_traitsIcESaIcEEESC_iiiiiRKN8nlohmann10basic_jsonISt3mapSt6vectorSA_blmdSaNSD_14adl_serializerEEE
FN:73,_ZN14social_network10ClientPoolINS_12ThriftClientINS_17UserServiceClientEEEED2Ev
FN:81,_ZN14social_network10ClientPoolINS_12ThriftClientINS_17UserServiceClientEEEE3PopEv
FN:91,_ZZN14social_network10ClientPoolINS_12ThriftClientINS_17UserServiceClientEEEE3PopEvENKUlvE_clEv
FN:123,_ZN14social_network10ClientPoolINS_12ThriftClientINS_17UserServiceClientEEEE4PushEPS3_
FN:131,_ZN14social_network10ClientPoolINS_12ThriftClientINS_17UserServiceClientEEEE6RemoveEPS3_
FN:141,_ZN14social_network10ClientPoolINS_12ThriftClientINS_17UserServiceClientEEEE9KeepaliveEPS3_
FNDA:1,_ZN14social_network10ClientPoolINS_12ThriftClientINS_17UserServiceClientEEEEC2ERKNSt7__cxx1112basic_stringIcSt11char_traitsIcESaIcEEESC_iiiiiRKN8nlohmann10basic_jsonISt3mapSt6vectorSA_blmdSaNSD_14adl_serializerEEE
FNDA:0,_ZN14social_network10ClientPoolINS_12ThriftClientINS_17UserServiceClientEEEED2Ev
FNDA:75219,_ZN14social_network10ClientPoolINS_12ThriftClientINS_17UserServiceClientEEEE3PopEv
FNDA:0,_ZZN14social_network10ClientPoolINS_12ThriftClientINS_17UserServiceClientEEEE3PopEvENKUlvE_clEv
FNDA:74931,_ZN14social_network10ClientPoolINS_12ThriftClientINS_17UserServiceClientEEEE4PushEPS3_
FNDA:261,_ZN14social_network10ClientPoolINS_12ThriftClientINS_17UserServiceClientEEEE6RemoveEPS3_
FNDA:75228,_ZN14social_network10ClientPoolINS_12ThriftClientINS_17UserServiceClientEEEE9KeepaliveEPS3_
FNF:7
FNH:5
DA:52,1
DA:55,1
DA:56,1
DA:57,1
DA:58,1
DA:59,1
DA:60,1
DA:61,1
DA:62,1
DA:63,1
DA:65,1
DA:66,0
DA:67,0
DA:69,1
DA:70,1
DA:73,0
DA:74,0
DA:75,0
DA:76,0
DA:78,0
DA:81,75219
DA:82,75219
DA:84,150469
DA:85,75248
DA:88,0
DA:89,0
DA:91,0
DA:92,0
DA:93,0
DA:94,0
DA:95,0
DA:96,0
DA:99,75248
DA:100,74950
DA:101,74950
DA:103,298
DA:104,298
DA:106,75248
DA:110,75250
DA:112,75247
DA:113,0
DA:114,0
DA:115,0
DA:116,0
DA:119,75243
DA:123,74931
DA:124,149918
DA:125,74987
DA:126,74987
DA:127,74984
DA:128,74985
DA:131,261
DA:133,261
DA:134,522
DA:135,261
DA:136,261
DA:137,261
DA:138,261
DA:141,75228
DA:142,150463
DA:143,225682
DA:144,75217
DA:145,261
DA:147,74956
DA:149,75243
LF:65
LH:46
end_of_record
SF:/social-network-microservices/src/GenericClient.h
FN:9,_ZN14social_network13GenericClientC2Ev
FN:11,_ZN14social_network13GenericClientD2Ev
FN:11,_ZN14social_network13GenericClientD0Ev
FNDA:298,_ZN14social_network13GenericClientC2Ev
FNDA:0,_ZN14social_network13GenericClientD0Ev
FNDA:261,_ZN14social_network13GenericClientD2Ev
FNF:3
FNH:2
DA:9,298
DA:11,261
LF:2
LH:2
end_of_record
SF:/social-network-microservices/src/SocialGraphService/SocialGraphHandler.h
FN:38,_ZN14social_network18SocialGraphHandlerD2Ev
FN:38,_ZN14social_network18SocialGraphHandlerD0Ev
FN:65,_ZN14social_network18SocialGraphHandlerC2EP21_mongoc_client_pool_tPN2sw5redis5RedisEPNS_10ClientPoolINS_12ThriftClientINS_17UserServiceClientEEEEE
FN:76,_ZN14social_network18SocialGraphHandlerC2EP21_mongoc_client_pool_tPN2sw5redis5RedisES6_PNS_10ClientPoolINS_12ThriftClientINS_17UserServiceClientEEEEE
FN:87,_ZN14social_network18SocialGraphHandlerC2EP21_mongoc_client_pool_tPN2sw5redis12RedisClusterEPNS_10ClientPoolINS_12ThriftClientINS_17UserServiceClientEEEEE
FN:99,_ZN14social_network18SocialGraphHandler25IsRedisReplicationEnabledEv
FN:103,_ZN14social_network18SocialGraphHandler6FollowElllRKSt3mapINSt7__cxx1112basic_stringIcSt11char_traitsIcESaIcEEES7_St4lessIS7_ESaISt4pairIKS7_S7_EEE
FN:121,_ZZN14social_network18SocialGraphHandler6FollowElllRKSt3mapINSt7__cxx1112basic_stringIcSt11char_traitsIcESaIcEEES7_St4lessIS7_ESaISt4pairIKS7_S7_EEEENKUlvE_clEv
FN:178,_ZZN14social_network18SocialGraphHandler6FollowElllRKSt3mapINSt7__cxx1112basic_stringIcSt11char_traitsIcESaIcEEES7_St4lessIS7_ESaISt4pairIKS7_S7_EEEENKUlvE0_clEv
FN:234,_ZZN14social_network18SocialGraphHandler6FollowElllRKSt3mapINSt7__cxx1112basic_stringIcSt11char_traitsIcESaIcEEES7_St4lessIS7_ESaISt4pairIKS7_S7_EEEENKUlvE1_clEv
FN:305,_ZN14social_network18SocialGraphHandler8UnfollowElllRKSt3mapINSt7__cxx1112basic_stringIcSt11char_traitsIcESaIcEEES7_St4lessIS7_ESaISt4pairIKS7_S7_EEE
FN:319,_ZZN14social_network18SocialGraphHandler8UnfollowElllRKSt3mapINSt7__cxx1112basic_stringIcSt11char_traitsIcESaIcEEES7_St4lessIS7_ESaISt4pairIKS7_S7_EEEENKUlvE_clEv
FN:373,_ZZN14social_network18SocialGraphHandler8UnfollowElllRKSt3mapINSt7__cxx1112basic_stringIcSt11char_traitsIcESaIcEEES7_St4lessIS7_ESaISt4pairIKS7_S7_EEEENKUlvE0_clEv
FN:426,_ZZN14social_network18SocialGraphHandler8UnfollowElllRKSt3mapINSt7__cxx1112basic_stringIcSt11char_traitsIcESaIcEEES7_St4lessIS7_ESaISt4pairIKS7_S7_EEEENKUlvE1_clEv
FN:489,_ZN14social_network18SocialGraphHandler12GetFollowersERSt6vectorIlSaIlEEllRKSt3mapINSt7__cxx1112basic_stringIcSt11char_traitsIcESaIcEEESB_St4lessISB_ESaISt4pairIKSB_SB_EEE
FN:629,_ZN14social_network18SocialGraphHandler12GetFolloweesERSt6vectorIlSaIlEEllRKSt3mapINSt7__cxx1112basic_stringIcSt11char_traitsIcESaIcEEESB_St4lessISB_ESaISt4pairIKSB_SB_EEE
FN:776,_ZN14social_network18SocialGraphHandler10InsertUserEllRKSt3mapINSt7__cxx1112basic_stringIcSt11char_traitsIcESaIcEEES7_St4lessIS7_ESaISt4pairIKS7_S7_EEE
FN:834,_ZN14social_network18SocialGraphHandler18FollowWithUsernameElRKNSt7__cxx1112basic_stringIcSt11char_traitsIcESaIcEEES8_RKSt3mapIS6_S6_St4lessIS6_ESaISt4pairIS7_S6_EEE
FN:849,_ZZN14social_network18SocialGraphHandler18FollowWithUsernameElRKNSt7__cxx1112basic_stringIcSt11char_traitsIcESaIcEEES8_RKSt3mapIS6_S6_St4lessIS6_ESaISt4pairIS7_S6_EEEENKUlvE_clEv
FN:871,_ZZN14social_network18SocialGraphHandler18FollowWithUsernameElRKNSt7__cxx1112basic_stringIcSt11char_traitsIcESaIcEEES8_RKSt3mapIS6_S6_St4lessIS6_ESaISt4pairIS7_S6_EEEENKUlvE0_clEv
FN:910,_ZN14social_network18SocialGraphHandler20UnfollowWithUsernameElRKNSt7__cxx1112basic_stringIcSt11char_traitsIcESaIcEEES8_RKSt3mapIS6_S6_St4lessIS6_ESaISt4pairIS7_S6_EEE
FN:925,_ZZN14social_network18SocialGraphHandler20UnfollowWithUsernameElRKNSt7__cxx1112basic_stringIcSt11char_traitsIcESaIcEEES8_RKSt3mapIS6_S6_St4lessIS6_ESaISt4pairIS7_S6_EEEENKUlvE_clEv
FN:947,_ZZN14social_network18SocialGraphHandler20UnfollowWithUsernameElRKNSt7__cxx1112basic_stringIcSt11char_traitsIcESaIcEEES8_RKSt3mapIS6_S6_St4lessIS6_ESaISt4pairIS7_S6_EEEENKUlvE0_clEv
FNDA:0,_ZN14social_network18SocialGraphHandlerD0Ev
FNDA:0,_ZN14social_network18SocialGraphHandlerD2Ev
FNDA:1,_ZN14social_network18SocialGraphHandlerC2EP21_mongoc_client_pool_tPN2sw5redis5RedisEPNS_10ClientPoolINS_12ThriftClientINS_17UserServiceClientEEEEE
FNDA:0,_ZN14social_network18SocialGraphHandlerC2EP21_mongoc_client_pool_tPN2sw5redis5RedisES6_PNS_10ClientPoolINS_12ThriftClientINS_17UserServiceClientEEEEE
FNDA:0,_ZN14social_network18SocialGraphHandlerC2EP21_mongoc_client_pool_tPN2sw5redis12RedisClusterEPNS_10ClientPoolINS_12ThriftClientINS_17UserServiceClientEEEEE
FNDA:0,_ZN14social_network18SocialGraphHandler25IsRedisReplicationEnabledEv
FNDA:37801,_ZN14social_network18SocialGraphHandler6FollowElllRKSt3mapINSt7__cxx1112basic_stringIcSt11char_traitsIcESaIcEEES7_St4lessIS7_ESaISt4pairIKS7_S7_EEE
FNDA:37818,_ZZN14social_network18SocialGraphHandler6FollowElllRKSt3mapINSt7__cxx1112basic_stringIcSt11char_traitsIcESaIcEEES7_St4lessIS7_ESaISt4pairIKS7_S7_EEEENKUlvE_clEv
FNDA:37813,_ZZN14social_network18SocialGraphHandler6FollowElllRKSt3mapINSt7__cxx1112basic_stringIcSt11char_traitsIcESaIcEEES7_St4lessIS7_ESaISt4pairIKS7_S7_EEEENKUlvE0_clEv
FNDA:37817,_ZZN14social_network18SocialGraphHandler6FollowElllRKSt3mapINSt7__cxx1112basic_stringIcSt11char_traitsIcESaIcEEES7_St4lessIS7_ESaISt4pairIKS7_S7_EEEENKUlvE1_clEv
FNDA:200,_ZN14social_network18SocialGraphHandler8UnfollowElllRKSt3mapINSt7__cxx1112basic_stringIcSt11char_traitsIcESaIcEEES7_St4lessIS7_ESaISt4pairIKS7_S7_EEE
FNDA:200,_ZZN14social_network18SocialGraphHandler8UnfollowElllRKSt3mapINSt7__cxx1112basic_stringIcSt11char_traitsIcESaIcEEES7_St4lessIS7_ESaISt4pairIKS7_S7_EEEENKUlvE_clEv
FNDA:200,_ZZN14social_network18SocialGraphHandler8UnfollowElllRKSt3mapINSt7__cxx1112basic_stringIcSt11char_traitsIcESaIcEEES7_St4lessIS7_ESaISt4pairIKS7_S7_EEEENKUlvE0_clEv
FNDA:200,_ZZN14social_network18SocialGraphHandler8UnfollowElllRKSt3mapINSt7__cxx1112basic_stringIcSt11char_traitsIcESaIcEEES7_St4lessIS7_ESaISt4pairIKS7_S7_EEEENKUlvE1_clEv
FNDA:0,_ZN14social_network18SocialGraphHandler12GetFollowersERSt6vectorIlSaIlEEllRKSt3mapINSt7__cxx1112basic_stringIcSt11char_traitsIcESaIcEEESB_St4lessISB_ESaISt4pairIKSB_SB_EEE
FNDA:0,_ZN14social_network18SocialGraphHandler12GetFolloweesERSt6vectorIlSaIlEEllRKSt3mapINSt7__cxx1112basic_stringIcSt11char_traitsIcESaIcEEESB_St4lessISB_ESaISt4pairIKSB_SB_EEE
FNDA:962,_ZN14social_network18SocialGraphHandler10InsertUserEllRKSt3mapINSt7__cxx1112basic_stringIcSt11char_traitsIcESaIcEEES7_St4lessIS7_ESaISt4pairIKS7_S7_EEE
FNDA:37579,_ZN14social_network18SocialGraphHandler18FollowWithUsernameElRKNSt7__cxx1112basic_stringIcSt11char_traitsIcESaIcEEES8_RKSt3mapIS6_S6_St4lessIS6_ESaISt4pairIS7_S6_EEE
FNDA:37612,_ZZN14social_network18SocialGraphHandler18FollowWithUsernameElRKNSt7__cxx1112basic_stringIcSt11char_traitsIcESaIcEEES8_RKSt3mapIS6_S6_St4lessIS6_ESaISt4pairIS7_S6_EEEENKUlvE_clEv
FNDA:37615,_ZZN14social_network18SocialGraphHandler18FollowWithUsernameElRKNSt7__cxx1112basic_stringIcSt11char_traitsIcESaIcEEES8_RKSt3mapIS6_S6_St4lessIS6_ESaISt4pairIS7_S6_EEEENKUlvE0_clEv
FNDA:0,_ZN14social_network18SocialGraphHandler20UnfollowWithUsernameElRKNSt7__cxx1112basic_stringIcSt11char_traitsIcESaIcEEES8_RKSt3mapIS6_S6_St4lessIS6_ESaISt4pairIS7_S6_EEE
FNDA:0,_ZZN14social_network18SocialGraphHandler20UnfollowWithUsernameElRKNSt7__cxx1112basic_stringIcSt11char_traitsIcESaIcEEES8_RKSt3mapIS6_S6_St4lessIS6_ESaISt4pairIS7_S6_EEEENKUlvE_clEv
FNDA:0,_ZZN14social_network18SocialGraphHandler20UnfollowWithUsernameElRKNSt7__cxx1112basic_stringIcSt11char_traitsIcESaIcEEES8_RKSt3mapIS6_S6_St4lessIS6_ESaISt4pairIS7_S6_EEEENKUlvE0_clEv
FNF:23
FNH:13
DA:38,0
DA:65,1
DA:67,1
DA:68,1
DA:69,1
DA:70,1
DA:71,1
DA:72,1
DA:73,1
DA:74,1
DA:76,0
DA:78,0
DA:79,0
DA:80,0
DA:81,0
DA:82,0
DA:83,0
DA:84,0
DA:85,0
DA:87,0
DA:90,0
DA:91,0
DA:92,0
DA:93,0
DA:94,0
DA:95,0
DA:96,0
DA:97,0
DA:99,0
DA:100,0
DA:103,37801
DA:106,75621
DA:108,75644
DA:109,75644
DA:110,75643
DA:111,75644
DA:112,75641
DA:113,151284
DA:114,37821
DA:117,75640
DA:118,37823
DA:121,37818
DA:123,75632
DA:124,37824
DA:125,0
DA:126,0
DA:127,0
DA:128,0
DA:131,37824
DA:132,37817
DA:133,0
DA:134,0
DA:135,0
DA:136,0
DA:137,0
DA:142,75638
DA:146,75641
DA:151,75632
DA:152,151287
DA:155,37819
DA:156,37814
DA:157,0
DA:158,0
DA:159,0
DA:160,0
DA:161,0
DA:162,0
DA:163,0
DA:164,0
DA:165,0
DA:166,0
DA:167,0
DA:169,37814
DA:170,37815
DA:171,37823
DA:172,37824
DA:173,37824
DA:174,37814
DA:175,113459
DA:178,37813
DA:180,75636
DA:181,37822
DA:182,0
DA:183,0
DA:184,0
DA:185,0
DA:188,37822
DA:189,37819
DA:190,0
DA:191,0
DA:192,0
DA:193,0
DA:194,0
DA:199,75636
DA:202,75640
DA:206,75630
DA:208,151286
DA:212,37821
DA:213,37815
DA:214,0
DA:215,0
DA:216,0
DA:217,0
DA:218,0
DA:219,0
DA:220,0
DA:221,0
DA:222,0
DA:223,0
DA:224,0
DA:226,37815
DA:227,37814
DA:228,37819
DA:229,37820
DA:230,37822
DA:231,37823
DA:232,113448
DA:234,37817
DA:235,75640
DA:237,151275
DA:240,37823
DA:241,75640
DA:242,113457
DA:243,226925
DA:244,75639
DA:245,226937
DA:247,37822
DA:248,0
DA:249,0
DA:250,0
DA:253,0
DA:254,0
DA:255,0
DA:256,0
DA:257,0
DA:258,0
DA:260,0
DA:262,0
DA:263,0
DA:264,0
DA:275,0
DA:276,0
DA:277,0
DA:278,0
DA:279,0
DA:280,0
DA:281,0
DA:282,0
DA:283,0
DA:287,37820
DA:288,113457
DA:291,37809
DA:292,37816
DA:293,37815
DA:294,75641
DA:295,0
DA:296,0
DA:297,0
DA:298,0
DA:299,0
DA:302,37823
DA:303,37822
DA:305,200
DA:308,400
DA:310,400
DA:311,400
DA:312,400
DA:313,400
DA:314,400
DA:315,800
DA:316,200
DA:319,200
DA:321,400
DA:322,200
DA:323,0
DA:324,0
DA:325,0
DA:326,0
DA:329,200
DA:330,200
DA:331,0
DA:332,0
DA:333,0
DA:334,0
DA:335,0
DA:337,200
DA:340,200
DA:341,200
DA:345,400
DA:347,800
DA:350,200
DA:351,200
DA:352,0
DA:353,0
DA:354,0
DA:355,0
DA:356,0
DA:357,0
DA:358,0
DA:359,0
DA:360,0
DA:361,0
DA:362,0
DA:364,200
DA:365,200
DA:366,200
DA:367,200
DA:368,200
DA:369,200
DA:370,600
DA:373,200
DA:375,400
DA:376,200
DA:377,0
DA:378,0
DA:379,0
DA:380,0
DA:383,200
DA:384,200
DA:385,0
DA:386,0
DA:387,0
DA:388,0
DA:389,0
DA:391,200
DA:394,200
DA:395,200
DA:399,400
DA:401,800
DA:404,200
DA:405,200
DA:406,0
DA:407,0
DA:408,0
DA:409,0
DA:410,0
DA:411,0
DA:412,0
DA:413,0
DA:414,0
DA:415,0
DA:416,0
DA:418,200
DA:419,200
DA:420,200
DA:421,200
DA:422,200
DA:423,200
DA:424,600
DA:426,200
DA:427,400
DA:429,800
DA:431,200
DA:432,400
DA:433,600
DA:434,600
DA:435,400
DA:436,600
DA:439,200
DA:440,0
DA:441,0
DA:442,0
DA:445,0
DA:446,0
DA:447,0
DA:448,0
DA:449,0
DA:450,0
DA:453,0
DA:455,0
DA:456,0
DA:457,0
DA:461,0
DA:462,0
DA:464,0
DA:465,0
DA:466,0
DA:467,0
DA:468,0
DA:469,0
DA:470,0
DA:474,200
DA:475,600
DA:478,200
DA:479,200
DA:480,200
DA:481,400
DA:482,0
DA:483,0
DA:486,200
DA:487,200
DA:489,0
DA:492,0
DA:494,0
DA:495,0
DA:496,0
DA:497,0
DA:498,0
DA:499,0
DA:500,0
DA:502,0
DA:504,0
DA:506,0
DA:507,0
DA:509,0
DA:510,0
DA:512,0
DA:513,0
DA:516,0
DA:517,0
DA:519,0
DA:520,0
DA:521,0
DA:523,0
DA:526,0
DA:527,0
DA:528,0
DA:535,0
DA:536,0
DA:537,0
DA:538,0
DA:539,0
DA:540,0
DA:543,0
DA:544,0
DA:545,0
DA:546,0
DA:547,0
DA:548,0
DA:549,0
DA:551,0
DA:552,0
DA:553,0
DA:555,0
DA:557,0
DA:559,0
DA:560,0
DA:565,0
DA:566,0
DA:567,0
DA:568,0
DA:570,0
DA:572,0
DA:573,0
DA:574,0
DA:575,0
DA:577,0
DA:578,0
DA:579,0
DA:580,0
DA:581,0
DA:582,0
DA:584,0
DA:585,0
DA:586,0
DA:587,0
DA:589,0
DA:590,0
DA:591,0
DA:592,0
DA:593,0
DA:596,0
DA:597,0
DA:599,0
DA:601,0
DA:602,0
DA:604,0
DA:605,0
DA:608,0
DA:609,0
DA:611,0
DA:612,0
DA:613,0
DA:615,0
DA:617,0
DA:618,0
DA:619,0
DA:620,0
DA:621,0
DA:622,0
DA:625,0
DA:626,0
DA:627,0
DA:629,0
DA:632,0
DA:634,0
DA:635,0
DA:636,0
DA:637,0
DA:638,0
DA:639,0
DA:640,0
DA:642,0
DA:644,0
DA:646,0
DA:647,0
DA:649,0
DA:650,0
DA:652,0
DA:653,0
DA:656,0
DA:657,0
DA:659,0
DA:660,0
DA:661,0
DA:663,0
DA:666,0
DA:667,0
DA:668,0
DA:674,0
DA:676,0
DA:677,0
DA:678,0
DA:679,0
DA:680,0
DA:681,0
DA:684,0
DA:685,0
DA:686,0
DA:687,0
DA:688,0
DA:689,0
DA:690,0
DA:692,0
DA:693,0
DA:694,0
DA:696,0
DA:698,0
DA:700,0
DA:701,0
DA:702,0
DA:703,0
DA:704,0
DA:705,0
DA:706,0
DA:707,0
DA:708,0
DA:709,0
DA:715,0
DA:717,0
DA:718,0
DA:720,0
DA:722,0
DA:724,0
DA:725,0
DA:726,0
DA:727,0
DA:729,0
DA:730,0
DA:731,0
DA:732,0
DA:733,0
DA:734,0
DA:737,0
DA:738,0
DA:739,0
DA:740,0
DA:743,0
DA:744,0
DA:745,0
DA:746,0
DA:747,0
DA:750,0
DA:751,0
DA:753,0
DA:755,0
DA:756,0
DA:758,0
DA:759,0
DA:762,0
DA:763,0
DA:765,0
DA:766,0
DA:767,0
DA:769,0
DA:772,0
DA:773,0
DA:774,0
DA:776,962
DA:779,1924
DA:781,1923
DA:782,1924
DA:783,1924
DA:784,1924
DA:785,1924
DA:786,3848
DA:787,962
DA:790,962
DA:791,962
DA:792,0
DA:793,0
DA:794,0
DA:795,0
DA:798,962
DA:799,960
DA:800,0
DA:801,0
DA:802,0
DA:803,0
DA:804,0
DA:807,960
DA:810,1924
DA:812,3848
DA:814,962
DA:815,962
DA:816,961
DA:817,0
DA:818,0
DA:819,0
DA:820,0
DA:821,0
DA:822,0
DA:823,0
DA:824,0
DA:825,0
DA:827,961
DA:828,962
DA:829,961
DA:830,1924
DA:831,962
DA:832,962
DA:834,37579
DA:838,75171
DA:840,75242
DA:841,75239
DA:842,75234
DA:843,75236
DA:844,75235
DA:846,150479
DA:847,37619
DA:849,37612
DA:850,75217
DA:851,37624
DA:852,0
DA:853,0
DA:854,0
DA:855,0
DA:857,37624
DA:860,37619
DA:861,0
DA:862,0
DA:863,0
DA:864,0
DA:866,37605
DA:867,37618
DA:868,75239
DA:871,37615
DA:872,75220
DA:873,37620
DA:874,0
DA:875,0
DA:876,0
DA:877,0
DA:879,37620
DA:883,37620
DA:884,0
DA:885,0
DA:886,0
DA:887,0
DA:889,37605
DA:890,37612
DA:891,75198
DA:896,37609
DA:897,37607
DA:898,0
DA:899,0
DA:900,0
DA:903,37609
DA:904,37619
DA:906,75184
DA:907,37624
DA:908,37622
DA:910,0
DA:914,0
DA:916,0
DA:917,0
DA:918,0
DA:919,0
DA:920,0
DA:922,0
DA:923,0
DA:925,0
DA:926,0
DA:927,0
DA:928,0
DA:929,0
DA:930,0
DA:931,0
DA:933,0
DA:936,0
DA:937,0
DA:938,0
DA:939,0
DA:940,0
DA:942,0
DA:943,0
DA:944,0
DA:947,0
DA:948,0
DA:949,0
DA:950,0
DA:951,0
DA:952,0
DA:953,0
DA:955,0
DA:959,0
DA:960,0
DA:961,0
DA:962,0
DA:963,0
DA:965,0
DA:966,0
DA:967,0
DA:972,0
DA:973,0
DA:974,0
DA:975,0
DA:978,0
DA:980,0
DA:981,0
DA:982,0
DA:985,0
DA:986,0
DA:987,0
LF:624
LH:196
end_of_record
SF:/social-network-microservices/src/SocialGraphService/SocialGraphService.cpp
FN:24,_Z13sigintHandleri
FN:26,_Z14handle_sigusr1i
FN:30,main
FN:153,_GLOBAL__sub_I__ZN14social_network11init_loggerEv
FN:153,_Z41__static_initialization_and_destruction_0ii
FNDA:0,_Z13sigintHandleri
FNDA:1,_Z14handle_sigusr1i
FNDA:1,main
FNDA:1,_GLOBAL__sub_I__ZN14social_network11init_loggerEv
FNDA:1,_Z41__static_initialization_and_destruction_0ii
FNF:5
FNH:4
DA:24,0
DA:26,1
DA:27,1
DA:28,0
DA:30,1
DA:31,1
DA:32,1
DA:33,1
DA:37,1
DA:38,2
DA:40,2
DA:41,1
DA:43,1
DA:44,1
DA:45,1
DA:47,1
DA:48,0
DA:49,0
DA:52,1
DA:53,1
DA:54,1
DA:55,0
DA:59,1
DA:61,1
DA:62,1
DA:63,0
DA:66,1
DA:68,1
DA:69,1
DA:71,1
DA:72,1
DA:73,1
DA:74,1
DA:75,1
DA:77,1
DA:78,1
DA:80,1
DA:82,1
DA:83,0
DA:86,1
DA:87,0
DA:88,0
DA:93,1
DA:95,1
DA:96,1
DA:97,0
DA:98,0
DA:100,1
DA:101,3
DA:102,1
DA:103,1
DA:104,0
DA:105,0
DA:108,1
DA:111,1
DA:113,1
DA:115,0
DA:117,0
DA:118,0
DA:121,0
DA:122,0
DA:123,0
DA:124,0
DA:127,1
DA:128,0
DA:129,0
DA:132,0
DA:133,0
DA:135,0
DA:136,0
DA:137,0
DA:138,0
DA:143,1
DA:145,2
DA:146,2
DA:148,2
DA:149,6
DA:150,2
DA:151,1
DA:153,3
LF:80
LH:52
end_of_record
SF:/social-network-microservices/src/ThriftClient.h
FN:73,_ZN14social_network12ThriftClientINS_17UserServiceClientEEC2ERKNSt7__cxx1112basic_stringIcSt11char_traitsIcESaIcEEEiiRKN8nlohmann10basic_jsonISt3mapSt6vectorS8_blmdSaNSB_14adl_serializerEEE
FN:111,_ZN14social_network12ThriftClientINS_17UserServiceClientEED2Ev
FN:111,_ZN14social_network12ThriftClientINS_17UserServiceClientEED0Ev
FN:117,_ZNK14social_network12ThriftClientINS_17UserServiceClientEE9GetClientEv
FN:122,_ZN14social_network12ThriftClientINS_17UserServiceClientEE11IsConnectedEv
FN:127,_ZN14social_network12ThriftClientINS_17UserServiceClientEE7ConnectEv
FN:138,_ZN14social_network12ThriftClientINS_17UserServiceClientEE10DisconnectEv
FNDA:298,_ZN14social_network12ThriftClientINS_17UserServiceClientEEC2ERKNSt7__cxx1112basic_stringIcSt11char_traitsIcESaIcEEEiiRKN8nlohmann10basic_jsonISt3mapSt6vectorS8_blmdSaNSB_14adl_serializerEEE
FNDA:261,_ZN14social_network12ThriftClientINS_17UserServiceClientEED0Ev
FNDA:261,_ZN14social_network12ThriftClientINS_17UserServiceClientEED2Ev
FNDA:75235,_ZNK14social_network12ThriftClientINS_17UserServiceClientEE9GetClientEv
FNDA:75487,_ZN14social_network12ThriftClientINS_17UserServiceClientEE11IsConnectedEv
FNDA:75228,_ZN14social_network12ThriftClientINS_17UserServiceClientEE7ConnectEv
FNDA:261,_ZN14social_network12ThriftClientINS_17UserServiceClientEE10DisconnectEv
FNF:7
FNH:7
DA:73,298
DA:74,298
DA:75,298
DA:76,298
DA:77,298
DA:79,298
DA:80,0
DA:81,0
DA:83,0
DA:84,0
DA:85,0
DA:86,0
DA:95,0
DA:96,0
DA:98,298
DA:100,298
DA:101,298
DA:102,298
DA:103,298
DA:104,894
DA:105,596
DA:106,596
DA:107,298
DA:108,298
DA:111,522
DA:112,261
DA:113,261
DA:114,783
DA:117,75235
DA:118,75235
DA:122,75487
DA:123,75487
DA:127,75228
DA:128,75228
DA:130,298
DA:131,0
DA:132,0
DA:135,75243
DA:138,261
DA:139,261
DA:141,261
DA:142,0
DA:143,0
DA:146,259
LF:44
LH:32
end_of_record
SF:/social-network-microservices/src/logger.h
FN:17,_ZN14social_network11init_loggerEv
FNDA:1,_ZN14social_network11init_loggerEv
FNF:1
FNH:1
DA:17,1
DA:19,1
DA:20,1
DA:22,1
DA:23,1
DA:24,2
DA:25,2
DA:26,1
DA:27,1
LF:9
LH:9
end_of_record
SF:/social-network-microservices/src/tracing.h
FN:20,_ZN14social_network13TextMapReaderD2Ev
FN:20,_ZN14social_network13TextMapReaderD0Ev
FN:22,_ZN14social_network13TextMapReaderC2ERKSt3mapINSt7__cxx1112basic_stringIcSt11char_traitsIcESaIcEEES7_St4lessIS7_ESaISt4pairIKS7_S7_EEE
FN:25,_ZNK14social_network13TextMapReader10ForeachKeyESt8functionIFN11opentracing2v28expectedIvSt10error_codeEENS3_11string_viewES7_EE
FN:39,_ZN14social_network13TextMapWriterD0Ev
FN:39,_ZN14social_network13TextMapWriterD2Ev
FN:41,_ZN14social_network13TextMapWriterC2ERSt3mapINSt7__cxx1112basic_stringIcSt11char_traitsIcESaIcEEES7_St4lessIS7_ESaISt4pairIKS7_S7_EEE
FN:44,_ZNK14social_network13TextMapWriter3SetEN11opentracing2v211string_viewES3_
FN:53,_ZN14social_network11SetUpTracerERKNSt7__cxx1112basic_stringIcSt11char_traitsIcESaIcEEES7_
FNDA:0,_ZN14social_network13TextMapReaderD0Ev
FNDA:76579,_ZN14social_network13TextMapReaderD2Ev
FNDA:76537,_ZN14social_network13TextMapReaderC2ERKSt3mapINSt7__cxx1112basic_stringIcSt11char_traitsIcESaIcEEES7_St4lessIS7_ESaISt4pairIKS7_S7_EEE
FNDA:76599,_ZNK14social_network13TextMapReader10ForeachKeyESt8functionIFN11opentracing2v28expectedIvSt10error_codeEENS3_11string_viewES7_EE
FNDA:0,_ZN14social_network13TextMapWriterD0Ev
FNDA:76581,_ZN14social_network13TextMapWriterD2Ev
FNDA:76552,_ZN14social_network13TextMapWriterC2ERSt3mapINSt7__cxx1112basic_stringIcSt11char_traitsIcESaIcEEES7_St4lessIS7_ESaISt4pairIKS7_S7_EEE
FNDA:76541,_ZNK14social_network13TextMapWriter3SetEN11opentracing2v211string_viewES3_
FNDA:1,_ZN14social_network11SetUpTracerERKNSt7__cxx1112basic_stringIcSt11char_traitsIcESaIcEEES7_
FNF:9
FNH:7
DA:20,76579
DA:22,76537
DA:23,76537
DA:25,76599
DA:28,153172
DA:29,153141
DA:30,76578
DA:32,76577
DA:39,76581
DA:41,76552
DA:42,76552
DA:44,76541
DA:45,76541
DA:46,76565
DA:53,1
DA:56,2
DA:63,2
DA:65,1
DA:66,3
DA:70,2
DA:71,1
DA:73,1
DA:75,0
DA:77,0
DA:78,0
DA:83,1
LF:26
LH:23
end_of_record
SF:/social-network-microservices/src/utils.h
FN:14,_ZN14social_network16load_config_fileERKNSt7__cxx1112basic_stringIcSt11char_traitsIcESaIcEEEPN8nlohmann10basic_jsonISt3mapSt6vectorS5_blmdSaNS8_14adl_serializerEEE
FNDA:1,_ZN14social_network16load_config_fileERKNSt7__cxx1112basic_stringIcSt11char_traitsIcESaIcEEEPN8nlohmann10basic_jsonISt3mapSt6vectorS5_blmdSaNS8_14adl_serializerEEE
FNF:1
FNH:1
DA:14,1
DA:15,2
DA:16,1
DA:17,1
DA:18,1
DA:19,1
DA:20,1
DA:23,0
DA:24,0
LF:9
LH:7
end_of_record
SF:/social-network-microservices/src/utils_mongodb.h
FN:11,_ZN14social_network24init_mongodb_client_poolERKN8nlohmann10basic_jsonISt3mapSt6vectorNSt7__cxx1112basic_stringIcSt11char_traitsIcESaIcEEEblmdSaNS0_14adl_serializerEEERKS9_j
FN:49,_ZN14social_network11CreateIndexEP16_mongoc_client_tRKNSt7__cxx1112basic_stringIcSt11char_traitsIcESaIcEEES9_b
FNDA:1,_ZN14social_network24init_mongodb_client_poolERKN8nlohmann10basic_jsonISt3mapSt6vectorNSt7__cxx1112basic_stringIcSt11char_traitsIcESaIcEEEblmdSaNS0_14adl_serializerEEERKS9_j
FNDA:1,_ZN14social_network11CreateIndexEP16_mongoc_client_tRKNSt7__cxx1112basic_stringIcSt11char_traitsIcESaIcEEES9_b
FNF:2
FNH:2
DA:11,1
DA:16,2
DA:17,1
DA:18,2
DA:19,4
DA:21,1
DA:23,1
DA:26,1
DA:28,1
DA:29,0
DA:30,0
DA:31,0
DA:32,0
DA:33,0
DA:35,1
DA:36,0
DA:38,0
DA:39,0
DA:40,0
DA:43,1
DA:44,1
DA:45,1
DA:49,1
DA:62,1
DA:63,1
DA:64,1
DA:65,1
DA:66,1
DA:72,1
DA:74,1
DA:75,1
DA:76,0
DA:78,1
DA:79,1
DA:80,1
DA:81,1
DA:83,1
LF:37
LH:27
end_of_record
SF:/social-network-microservices/src/utils_redis.h
FN:10,_ZN14social_network22init_redis_client_poolERKN8nlohmann10basic_jsonISt3mapSt6vectorNSt7__cxx1112basic_stringIcSt11char_traitsIcESaIcEEEblmdSaNS0_14adl_serializerEEERKS9_
FN:33,_ZN14social_network30init_redis_cluster_client_poolERKN8nlohmann10basic_jsonISt3mapSt6vectorNSt7__cxx1112basic_stringIcSt11char_traitsIcESaIcEEEblmdSaNS0_14adl_serializerEEERKS9_
FN:56,_ZN14social_network30init_redis_replica_client_poolERKN8nlohmann10basic_jsonISt3mapSt6vectorNSt7__cxx1112basic_stringIcSt11char_traitsIcESaIcEEEblmdSaNS0_14adl_serializerEEERKS9_
FNDA:1,_ZN14social_network22init_redis_client_poolERKN8nlohmann10basic_jsonISt3mapSt6vectorNSt7__cxx1112basic_stringIcSt11char_traitsIcESaIcEEEblmdSaNS0_14adl_serializerEEERKS9_
FNDA:0,_ZN14social_network30init_redis_cluster_client_poolERKN8nlohmann10basic_jsonISt3mapSt6vectorNSt7__cxx1112basic_stringIcSt11char_traitsIcESaIcEEEblmdSaNS0_14adl_serializerEEERKS9_
FNDA:0,_ZN14social_network30init_redis_replica_client_poolERKN8nlohmann10basic_jsonISt3mapSt6vectorNSt7__cxx1112basic_stringIcSt11char_traitsIcESaIcEEEblmdSaNS0_14adl_serializerEEERKS9_
FNF:3
FNH:1
DA:10,1
DA:14,2
DA:15,1
DA:16,1
DA:18,1
DA:19,0
DA:21,0
DA:22,0
DA:25,1
DA:26,1
DA:27,1
DA:28,1
DA:30,2
DA:33,0
DA:37,0
DA:38,0
DA:39,0
DA:41,0
DA:42,0
DA:44,0
DA:45,0
DA:48,0
DA:49,0
DA:50,0
DA:51,0
DA:53,0
DA:56,0
DA:60,0
DA:61,0
DA:62,0
DA:64,0
DA:65,0
DA:67,0
DA:68,0
DA:71,0
DA:72,0
DA:73,0
DA:74,0
DA:76,0
LF:39
LH:10
end_of_record
SF:/social-network-microservices/src/utils_thrift.h
FN:16,_ZN14social_network17get_server_socketERKN8nlohmann10basic_jsonISt3mapSt6vectorNSt7__cxx1112basic_stringIcSt11char_traitsIcESaIcEEEblmdSaNS0_14adl_serializerEEERKS9_i
FNDA:1,_ZN14social_network17get_server_socketERKN8nlohmann10basic_jsonISt3mapSt6vectorNSt7__cxx1112basic_stringIcSt11char_traitsIcESaIcEEEblmdSaNS0_14adl_serializerEEERKS9_i
FNF:1
FNH:1
DA:16,1
DA:17,1
DA:18,1
DA:19,0
DA:20,0
DA:21,0
DA:22,0
DA:24,0
DA:25,0
DA:26,0
DA:27,0
DA:28,0
DA:33,0
DA:35,1
LF:14
LH:4
end_of_record
